

Microchip MPLAB XC8 Assembler V2.05 build -831301201 
                                                                                               Sun May 19 16:15:36 2019

Microchip MPLAB XC8 C Compiler v2.05 (Free license) build 20181220022703 Og1 
     1                           	processor	16F15344
     2                           	opt	pw 120
     3                           	opt	flic
     4                           	psect	cinit,global,class=CODE,merge=1,delta=2
     5                           	psect	bssCOMMON,global,class=COMMON,space=1,delta=1
     6                           	psect	bssBANK0,global,class=BANK0,space=1,delta=1
     7                           	psect	clrtext,global,class=CODE,delta=2
     8                           	psect	cstackCOMMON,global,class=COMMON,space=1,delta=1
     9                           	psect	maintext,global,class=CODE,merge=1,split=1,delta=2
    10                           	psect	text1,local,class=CODE,merge=1,delta=2
    11                           	psect	text2,local,class=CODE,merge=1,delta=2
    12                           	psect	text3,local,class=CODE,merge=1,delta=2
    13                           	psect	text4,local,class=CODE,merge=1,delta=2
    14                           	psect	text5,local,class=CODE,merge=1,delta=2
    15                           	psect	text6,local,class=CODE,merge=1,delta=2
    16                           	psect	text7,local,class=CODE,merge=1,delta=2
    17                           	psect	text8,local,class=CODE,merge=1,delta=2
    18                           	psect	text9,local,class=CODE,merge=1,delta=2
    19                           	psect	text10,local,class=CODE,merge=1,delta=2
    20                           	psect	text11,local,class=CODE,merge=1,delta=2
    21                           	psect	text12,local,class=CODE,merge=1,delta=2
    22                           	psect	text13,local,class=CODE,merge=1,delta=2
    23                           	psect	text14,local,class=CODE,merge=1,delta=2
    24                           	psect	text15,local,class=CODE,merge=1,delta=2
    25                           	psect	text16,local,class=CODE,merge=1,delta=2
    26                           	psect	text17,local,class=CODE,merge=1,delta=2
    27                           	psect	text18,local,class=CODE,merge=1,delta=2
    28                           	psect	text19,local,class=CODE,merge=1,delta=2
    29                           	dabs	1,0x7E,2
    30  0000                     
    31                           ; Version 2.05
    32                           ; Generated 20/12/2018 GMT
    33                           ; 
    34                           ; Copyright © 2018, Microchip Technology Inc. and its subsidiaries ("Microchip")
    35                           ; All rights reserved.
    36                           ; 
    37                           ; This software is developed by Microchip Technology Inc. and its subsidiaries ("Microch
      +                          ip").
    38                           ; 
    39                           ; Redistribution and use in source and binary forms, with or without modification, are
    40                           ; permitted provided that the following conditions are met:
    41                           ; 
    42                           ;     1. Redistributions of source code must retain the above copyright notice, this lis
      +                          t of
    43                           ;        conditions and the following disclaimer.
    44                           ; 
    45                           ;     2. Redistributions in binary form must reproduce the above copyright notice, this 
      +                          list
    46                           ;        of conditions and the following disclaimer in the documentation and/or other
    47                           ;        materials provided with the distribution.
    48                           ; 
    49                           ;     3. Microchip's name may not be used to endorse or promote products derived from th
      +                          is
    50                           ;        software without specific prior written permission.
    51                           ; 
    52                           ; THIS SOFTWARE IS PROVIDED BY MICROCHIP "AS IS" AND ANY EXPRESS OR IMPLIED WARRANTIES,
    53                           ; INCLUDING, BUT NOT LIMITED TO, THE IMPLIED WARRANTIES OF MERCHANTABILITY AND FITNESS F
      +                          OR
    54                           ; PURPOSE ARE DISCLAIMED.  IN NO EVENT SHALL MICROCHIP BE LIABLE FOR ANY DIRECT, INDIREC
      +                          T,
    55                           ; INCIDENTAL, SPECIAL, EXEMPLARY, OR CONSEQUENTIAL DAMAGES (INCLUDING BUT NOT LIMITED TO
    56                           ; PROCUREMENT OF SUBSTITUTE GOODS OR SERVICES; LOSS OF USE, DATA OR PROFITS; OR BUSINESS
    57                           ; INTERRUPTION) HOWSOEVER CAUSED AND ON ANY THEORY OF LIABILITY, WHETHER IN CONTRACT, ST
      +                          RICT
    58                           ; LIABILITY, OR TORT (INCLUDING NEGLIGENCE OR OTHERWISE) ARISING IN ANY WAY OUT OF THE U
      +                          SE OF
    59                           ; THIS SOFTWARE, EVEN IF ADVISED OF THE POSSIBILITY OF SUCH DAMAGE.
    60                           ; 
    61                           ; 
    62                           ; Code-generator required, PIC16F15344 Definitions
    63                           ; 
    64                           ; SFR Addresses
    65  0000                     	;# 
    66  0001                     	;# 
    67  0002                     	;# 
    68  0003                     	;# 
    69  0004                     	;# 
    70  0005                     	;# 
    71  0006                     	;# 
    72  0007                     	;# 
    73  0008                     	;# 
    74  0009                     	;# 
    75  000A                     	;# 
    76  000B                     	;# 
    77  000C                     	;# 
    78  000D                     	;# 
    79  000E                     	;# 
    80  0012                     	;# 
    81  0013                     	;# 
    82  0014                     	;# 
    83  0018                     	;# 
    84  0019                     	;# 
    85  001A                     	;# 
    86  009B                     	;# 
    87  009B                     	;# 
    88  009C                     	;# 
    89  009D                     	;# 
    90  009E                     	;# 
    91  009F                     	;# 
    92  0119                     	;# 
    93  0119                     	;# 
    94  0119                     	;# 
    95  011A                     	;# 
    96  011A                     	;# 
    97  011A                     	;# 
    98  011B                     	;# 
    99  011B                     	;# 
   100  011B                     	;# 
   101  011B                     	;# 
   102  011B                     	;# 
   103  011C                     	;# 
   104  011C                     	;# 
   105  011C                     	;# 
   106  011D                     	;# 
   107  011D                     	;# 
   108  011D                     	;# 
   109  011E                     	;# 
   110  011E                     	;# 
   111  011E                     	;# 
   112  011F                     	;# 
   113  011F                     	;# 
   114  011F                     	;# 
   115  011F                     	;# 
   116  011F                     	;# 
   117  018C                     	;# 
   118  018D                     	;# 
   119  018E                     	;# 
   120  018F                     	;# 
   121  0190                     	;# 
   122  0191                     	;# 
   123  0192                     	;# 
   124  020C                     	;# 
   125  020C                     	;# 
   126  020D                     	;# 
   127  020E                     	;# 
   128  020F                     	;# 
   129  020F                     	;# 
   130  0210                     	;# 
   131  0210                     	;# 
   132  0211                     	;# 
   133  0211                     	;# 
   134  028C                     	;# 
   135  028C                     	;# 
   136  028D                     	;# 
   137  028D                     	;# 
   138  028E                     	;# 
   139  028F                     	;# 
   140  0290                     	;# 
   141  0291                     	;# 
   142  030C                     	;# 
   143  030C                     	;# 
   144  030D                     	;# 
   145  030E                     	;# 
   146  030F                     	;# 
   147  0310                     	;# 
   148  0310                     	;# 
   149  0311                     	;# 
   150  0312                     	;# 
   151  0313                     	;# 
   152  0314                     	;# 
   153  0314                     	;# 
   154  0315                     	;# 
   155  0316                     	;# 
   156  0318                     	;# 
   157  0318                     	;# 
   158  0319                     	;# 
   159  031A                     	;# 
   160  031C                     	;# 
   161  031C                     	;# 
   162  031D                     	;# 
   163  031E                     	;# 
   164  038C                     	;# 
   165  038C                     	;# 
   166  038D                     	;# 
   167  038E                     	;# 
   168  058C                     	;# 
   169  058C                     	;# 
   170  058D                     	;# 
   171  058E                     	;# 
   172  058F                     	;# 
   173  058F                     	;# 
   174  0590                     	;# 
   175  0591                     	;# 
   176  0592                     	;# 
   177  0593                     	;# 
   178  059C                     	;# 
   179  059C                     	;# 
   180  059D                     	;# 
   181  059D                     	;# 
   182  059E                     	;# 
   183  059F                     	;# 
   184  060C                     	;# 
   185  060D                     	;# 
   186  060E                     	;# 
   187  060F                     	;# 
   188  0610                     	;# 
   189  0611                     	;# 
   190  0612                     	;# 
   191  0613                     	;# 
   192  0614                     	;# 
   193  070C                     	;# 
   194  070D                     	;# 
   195  070E                     	;# 
   196  070F                     	;# 
   197  0710                     	;# 
   198  0711                     	;# 
   199  0712                     	;# 
   200  0713                     	;# 
   201  0716                     	;# 
   202  0717                     	;# 
   203  0718                     	;# 
   204  0719                     	;# 
   205  071A                     	;# 
   206  071B                     	;# 
   207  071C                     	;# 
   208  071D                     	;# 
   209  0796                     	;# 
   210  0797                     	;# 
   211  0798                     	;# 
   212  0799                     	;# 
   213  079A                     	;# 
   214  079B                     	;# 
   215  080C                     	;# 
   216  080D                     	;# 
   217  080E                     	;# 
   218  080F                     	;# 
   219  0810                     	;# 
   220  0811                     	;# 
   221  0812                     	;# 
   222  0813                     	;# 
   223  0814                     	;# 
   224  081A                     	;# 
   225  081A                     	;# 
   226  081B                     	;# 
   227  081C                     	;# 
   228  081C                     	;# 
   229  081D                     	;# 
   230  081E                     	;# 
   231  081F                     	;# 
   232  088C                     	;# 
   233  088D                     	;# 
   234  088E                     	;# 
   235  088F                     	;# 
   236  0890                     	;# 
   237  0891                     	;# 
   238  0892                     	;# 
   239  0893                     	;# 
   240  0895                     	;# 
   241  0896                     	;# 
   242  090C                     	;# 
   243  090E                     	;# 
   244  090F                     	;# 
   245  091F                     	;# 
   246  098F                     	;# 
   247  098F                     	;# 
   248  0990                     	;# 
   249  0991                     	;# 
   250  0992                     	;# 
   251  0993                     	;# 
   252  0994                     	;# 
   253  0995                     	;# 
   254  0996                     	;# 
   255  0997                     	;# 
   256  0A19                     	;# 
   257  0A19                     	;# 
   258  0A1A                     	;# 
   259  0A1A                     	;# 
   260  0A1B                     	;# 
   261  0A1B                     	;# 
   262  0A1B                     	;# 
   263  0A1C                     	;# 
   264  0A1C                     	;# 
   265  0A1D                     	;# 
   266  0A1D                     	;# 
   267  0A1E                     	;# 
   268  0A1E                     	;# 
   269  0A1F                     	;# 
   270  0A1F                     	;# 
   271  0A1F                     	;# 
   272  1E0F                     	;# 
   273  1E10                     	;# 
   274  1E11                     	;# 
   275  1E12                     	;# 
   276  1E13                     	;# 
   277  1E14                     	;# 
   278  1E15                     	;# 
   279  1E16                     	;# 
   280  1E17                     	;# 
   281  1E18                     	;# 
   282  1E19                     	;# 
   283  1E1A                     	;# 
   284  1E1B                     	;# 
   285  1E1C                     	;# 
   286  1E1D                     	;# 
   287  1E1E                     	;# 
   288  1E1F                     	;# 
   289  1E20                     	;# 
   290  1E21                     	;# 
   291  1E22                     	;# 
   292  1E23                     	;# 
   293  1E24                     	;# 
   294  1E25                     	;# 
   295  1E26                     	;# 
   296  1E27                     	;# 
   297  1E28                     	;# 
   298  1E29                     	;# 
   299  1E2A                     	;# 
   300  1E2B                     	;# 
   301  1E2C                     	;# 
   302  1E2D                     	;# 
   303  1E2E                     	;# 
   304  1E2F                     	;# 
   305  1E30                     	;# 
   306  1E31                     	;# 
   307  1E32                     	;# 
   308  1E33                     	;# 
   309  1E34                     	;# 
   310  1E35                     	;# 
   311  1E36                     	;# 
   312  1E37                     	;# 
   313  1E8F                     	;# 
   314  1E90                     	;# 
   315  1E91                     	;# 
   316  1E92                     	;# 
   317  1E93                     	;# 
   318  1E9C                     	;# 
   319  1EA1                     	;# 
   320  1EA2                     	;# 
   321  1EB1                     	;# 
   322  1EBB                     	;# 
   323  1EBC                     	;# 
   324  1EBD                     	;# 
   325  1EBE                     	;# 
   326  1EC3                     	;# 
   327  1EC5                     	;# 
   328  1EC6                     	;# 
   329  1EC7                     	;# 
   330  1ECB                     	;# 
   331  1ECC                     	;# 
   332  1ECD                     	;# 
   333  1ECE                     	;# 
   334  1F10                     	;# 
   335  1F11                     	;# 
   336  1F12                     	;# 
   337  1F13                     	;# 
   338  1F14                     	;# 
   339  1F15                     	;# 
   340  1F1C                     	;# 
   341  1F1D                     	;# 
   342  1F1E                     	;# 
   343  1F1F                     	;# 
   344  1F20                     	;# 
   345  1F21                     	;# 
   346  1F22                     	;# 
   347  1F23                     	;# 
   348  1F24                     	;# 
   349  1F25                     	;# 
   350  1F26                     	;# 
   351  1F27                     	;# 
   352  1F38                     	;# 
   353  1F39                     	;# 
   354  1F3A                     	;# 
   355  1F3B                     	;# 
   356  1F3C                     	;# 
   357  1F3D                     	;# 
   358  1F3E                     	;# 
   359  1F3F                     	;# 
   360  1F43                     	;# 
   361  1F44                     	;# 
   362  1F45                     	;# 
   363  1F46                     	;# 
   364  1F47                     	;# 
   365  1F48                     	;# 
   366  1F49                     	;# 
   367  1F4A                     	;# 
   368  1F4E                     	;# 
   369  1F4F                     	;# 
   370  1F50                     	;# 
   371  1F51                     	;# 
   372  1F52                     	;# 
   373  1F53                     	;# 
   374  1F54                     	;# 
   375  1F55                     	;# 
   376  1FE4                     	;# 
   377  1FE5                     	;# 
   378  1FE6                     	;# 
   379  1FE7                     	;# 
   380  1FE8                     	;# 
   381  1FE8                     	;# 
   382  1FE9                     	;# 
   383  1FEA                     	;# 
   384  1FEA                     	;# 
   385  1FEB                     	;# 
   386  1FED                     	;# 
   387  1FEE                     	;# 
   388  1FEF                     	;# 
   389  0000                     	;# 
   390  0001                     	;# 
   391  0002                     	;# 
   392  0003                     	;# 
   393  0004                     	;# 
   394  0005                     	;# 
   395  0006                     	;# 
   396  0007                     	;# 
   397  0008                     	;# 
   398  0009                     	;# 
   399  000A                     	;# 
   400  000B                     	;# 
   401  000C                     	;# 
   402  000D                     	;# 
   403  000E                     	;# 
   404  0012                     	;# 
   405  0013                     	;# 
   406  0014                     	;# 
   407  0018                     	;# 
   408  0019                     	;# 
   409  001A                     	;# 
   410  009B                     	;# 
   411  009B                     	;# 
   412  009C                     	;# 
   413  009D                     	;# 
   414  009E                     	;# 
   415  009F                     	;# 
   416  0119                     	;# 
   417  0119                     	;# 
   418  0119                     	;# 
   419  011A                     	;# 
   420  011A                     	;# 
   421  011A                     	;# 
   422  011B                     	;# 
   423  011B                     	;# 
   424  011B                     	;# 
   425  011B                     	;# 
   426  011B                     	;# 
   427  011C                     	;# 
   428  011C                     	;# 
   429  011C                     	;# 
   430  011D                     	;# 
   431  011D                     	;# 
   432  011D                     	;# 
   433  011E                     	;# 
   434  011E                     	;# 
   435  011E                     	;# 
   436  011F                     	;# 
   437  011F                     	;# 
   438  011F                     	;# 
   439  011F                     	;# 
   440  011F                     	;# 
   441  018C                     	;# 
   442  018D                     	;# 
   443  018E                     	;# 
   444  018F                     	;# 
   445  0190                     	;# 
   446  0191                     	;# 
   447  0192                     	;# 
   448  020C                     	;# 
   449  020C                     	;# 
   450  020D                     	;# 
   451  020E                     	;# 
   452  020F                     	;# 
   453  020F                     	;# 
   454  0210                     	;# 
   455  0210                     	;# 
   456  0211                     	;# 
   457  0211                     	;# 
   458  028C                     	;# 
   459  028C                     	;# 
   460  028D                     	;# 
   461  028D                     	;# 
   462  028E                     	;# 
   463  028F                     	;# 
   464  0290                     	;# 
   465  0291                     	;# 
   466  030C                     	;# 
   467  030C                     	;# 
   468  030D                     	;# 
   469  030E                     	;# 
   470  030F                     	;# 
   471  0310                     	;# 
   472  0310                     	;# 
   473  0311                     	;# 
   474  0312                     	;# 
   475  0313                     	;# 
   476  0314                     	;# 
   477  0314                     	;# 
   478  0315                     	;# 
   479  0316                     	;# 
   480  0318                     	;# 
   481  0318                     	;# 
   482  0319                     	;# 
   483  031A                     	;# 
   484  031C                     	;# 
   485  031C                     	;# 
   486  031D                     	;# 
   487  031E                     	;# 
   488  038C                     	;# 
   489  038C                     	;# 
   490  038D                     	;# 
   491  038E                     	;# 
   492  058C                     	;# 
   493  058C                     	;# 
   494  058D                     	;# 
   495  058E                     	;# 
   496  058F                     	;# 
   497  058F                     	;# 
   498  0590                     	;# 
   499  0591                     	;# 
   500  0592                     	;# 
   501  0593                     	;# 
   502  059C                     	;# 
   503  059C                     	;# 
   504  059D                     	;# 
   505  059D                     	;# 
   506  059E                     	;# 
   507  059F                     	;# 
   508  060C                     	;# 
   509  060D                     	;# 
   510  060E                     	;# 
   511  060F                     	;# 
   512  0610                     	;# 
   513  0611                     	;# 
   514  0612                     	;# 
   515  0613                     	;# 
   516  0614                     	;# 
   517  070C                     	;# 
   518  070D                     	;# 
   519  070E                     	;# 
   520  070F                     	;# 
   521  0710                     	;# 
   522  0711                     	;# 
   523  0712                     	;# 
   524  0713                     	;# 
   525  0716                     	;# 
   526  0717                     	;# 
   527  0718                     	;# 
   528  0719                     	;# 
   529  071A                     	;# 
   530  071B                     	;# 
   531  071C                     	;# 
   532  071D                     	;# 
   533  0796                     	;# 
   534  0797                     	;# 
   535  0798                     	;# 
   536  0799                     	;# 
   537  079A                     	;# 
   538  079B                     	;# 
   539  080C                     	;# 
   540  080D                     	;# 
   541  080E                     	;# 
   542  080F                     	;# 
   543  0810                     	;# 
   544  0811                     	;# 
   545  0812                     	;# 
   546  0813                     	;# 
   547  0814                     	;# 
   548  081A                     	;# 
   549  081A                     	;# 
   550  081B                     	;# 
   551  081C                     	;# 
   552  081C                     	;# 
   553  081D                     	;# 
   554  081E                     	;# 
   555  081F                     	;# 
   556  088C                     	;# 
   557  088D                     	;# 
   558  088E                     	;# 
   559  088F                     	;# 
   560  0890                     	;# 
   561  0891                     	;# 
   562  0892                     	;# 
   563  0893                     	;# 
   564  0895                     	;# 
   565  0896                     	;# 
   566  090C                     	;# 
   567  090E                     	;# 
   568  090F                     	;# 
   569  091F                     	;# 
   570  098F                     	;# 
   571  098F                     	;# 
   572  0990                     	;# 
   573  0991                     	;# 
   574  0992                     	;# 
   575  0993                     	;# 
   576  0994                     	;# 
   577  0995                     	;# 
   578  0996                     	;# 
   579  0997                     	;# 
   580  0A19                     	;# 
   581  0A19                     	;# 
   582  0A1A                     	;# 
   583  0A1A                     	;# 
   584  0A1B                     	;# 
   585  0A1B                     	;# 
   586  0A1B                     	;# 
   587  0A1C                     	;# 
   588  0A1C                     	;# 
   589  0A1D                     	;# 
   590  0A1D                     	;# 
   591  0A1E                     	;# 
   592  0A1E                     	;# 
   593  0A1F                     	;# 
   594  0A1F                     	;# 
   595  0A1F                     	;# 
   596  1E0F                     	;# 
   597  1E10                     	;# 
   598  1E11                     	;# 
   599  1E12                     	;# 
   600  1E13                     	;# 
   601  1E14                     	;# 
   602  1E15                     	;# 
   603  1E16                     	;# 
   604  1E17                     	;# 
   605  1E18                     	;# 
   606  1E19                     	;# 
   607  1E1A                     	;# 
   608  1E1B                     	;# 
   609  1E1C                     	;# 
   610  1E1D                     	;# 
   611  1E1E                     	;# 
   612  1E1F                     	;# 
   613  1E20                     	;# 
   614  1E21                     	;# 
   615  1E22                     	;# 
   616  1E23                     	;# 
   617  1E24                     	;# 
   618  1E25                     	;# 
   619  1E26                     	;# 
   620  1E27                     	;# 
   621  1E28                     	;# 
   622  1E29                     	;# 
   623  1E2A                     	;# 
   624  1E2B                     	;# 
   625  1E2C                     	;# 
   626  1E2D                     	;# 
   627  1E2E                     	;# 
   628  1E2F                     	;# 
   629  1E30                     	;# 
   630  1E31                     	;# 
   631  1E32                     	;# 
   632  1E33                     	;# 
   633  1E34                     	;# 
   634  1E35                     	;# 
   635  1E36                     	;# 
   636  1E37                     	;# 
   637  1E8F                     	;# 
   638  1E90                     	;# 
   639  1E91                     	;# 
   640  1E92                     	;# 
   641  1E93                     	;# 
   642  1E9C                     	;# 
   643  1EA1                     	;# 
   644  1EA2                     	;# 
   645  1EB1                     	;# 
   646  1EBB                     	;# 
   647  1EBC                     	;# 
   648  1EBD                     	;# 
   649  1EBE                     	;# 
   650  1EC3                     	;# 
   651  1EC5                     	;# 
   652  1EC6                     	;# 
   653  1EC7                     	;# 
   654  1ECB                     	;# 
   655  1ECC                     	;# 
   656  1ECD                     	;# 
   657  1ECE                     	;# 
   658  1F10                     	;# 
   659  1F11                     	;# 
   660  1F12                     	;# 
   661  1F13                     	;# 
   662  1F14                     	;# 
   663  1F15                     	;# 
   664  1F1C                     	;# 
   665  1F1D                     	;# 
   666  1F1E                     	;# 
   667  1F1F                     	;# 
   668  1F20                     	;# 
   669  1F21                     	;# 
   670  1F22                     	;# 
   671  1F23                     	;# 
   672  1F24                     	;# 
   673  1F25                     	;# 
   674  1F26                     	;# 
   675  1F27                     	;# 
   676  1F38                     	;# 
   677  1F39                     	;# 
   678  1F3A                     	;# 
   679  1F3B                     	;# 
   680  1F3C                     	;# 
   681  1F3D                     	;# 
   682  1F3E                     	;# 
   683  1F3F                     	;# 
   684  1F43                     	;# 
   685  1F44                     	;# 
   686  1F45                     	;# 
   687  1F46                     	;# 
   688  1F47                     	;# 
   689  1F48                     	;# 
   690  1F49                     	;# 
   691  1F4A                     	;# 
   692  1F4E                     	;# 
   693  1F4F                     	;# 
   694  1F50                     	;# 
   695  1F51                     	;# 
   696  1F52                     	;# 
   697  1F53                     	;# 
   698  1F54                     	;# 
   699  1F55                     	;# 
   700  1FE4                     	;# 
   701  1FE5                     	;# 
   702  1FE6                     	;# 
   703  1FE7                     	;# 
   704  1FE8                     	;# 
   705  1FE8                     	;# 
   706  1FE9                     	;# 
   707  1FEA                     	;# 
   708  1FEA                     	;# 
   709  1FEB                     	;# 
   710  1FED                     	;# 
   711  1FEE                     	;# 
   712  1FEF                     	;# 
   713  0000                     	;# 
   714  0001                     	;# 
   715  0002                     	;# 
   716  0003                     	;# 
   717  0004                     	;# 
   718  0005                     	;# 
   719  0006                     	;# 
   720  0007                     	;# 
   721  0008                     	;# 
   722  0009                     	;# 
   723  000A                     	;# 
   724  000B                     	;# 
   725  000C                     	;# 
   726  000D                     	;# 
   727  000E                     	;# 
   728  0012                     	;# 
   729  0013                     	;# 
   730  0014                     	;# 
   731  0018                     	;# 
   732  0019                     	;# 
   733  001A                     	;# 
   734  009B                     	;# 
   735  009B                     	;# 
   736  009C                     	;# 
   737  009D                     	;# 
   738  009E                     	;# 
   739  009F                     	;# 
   740  0119                     	;# 
   741  0119                     	;# 
   742  0119                     	;# 
   743  011A                     	;# 
   744  011A                     	;# 
   745  011A                     	;# 
   746  011B                     	;# 
   747  011B                     	;# 
   748  011B                     	;# 
   749  011B                     	;# 
   750  011B                     	;# 
   751  011C                     	;# 
   752  011C                     	;# 
   753  011C                     	;# 
   754  011D                     	;# 
   755  011D                     	;# 
   756  011D                     	;# 
   757  011E                     	;# 
   758  011E                     	;# 
   759  011E                     	;# 
   760  011F                     	;# 
   761  011F                     	;# 
   762  011F                     	;# 
   763  011F                     	;# 
   764  011F                     	;# 
   765  018C                     	;# 
   766  018D                     	;# 
   767  018E                     	;# 
   768  018F                     	;# 
   769  0190                     	;# 
   770  0191                     	;# 
   771  0192                     	;# 
   772  020C                     	;# 
   773  020C                     	;# 
   774  020D                     	;# 
   775  020E                     	;# 
   776  020F                     	;# 
   777  020F                     	;# 
   778  0210                     	;# 
   779  0210                     	;# 
   780  0211                     	;# 
   781  0211                     	;# 
   782  028C                     	;# 
   783  028C                     	;# 
   784  028D                     	;# 
   785  028D                     	;# 
   786  028E                     	;# 
   787  028F                     	;# 
   788  0290                     	;# 
   789  0291                     	;# 
   790  030C                     	;# 
   791  030C                     	;# 
   792  030D                     	;# 
   793  030E                     	;# 
   794  030F                     	;# 
   795  0310                     	;# 
   796  0310                     	;# 
   797  0311                     	;# 
   798  0312                     	;# 
   799  0313                     	;# 
   800  0314                     	;# 
   801  0314                     	;# 
   802  0315                     	;# 
   803  0316                     	;# 
   804  0318                     	;# 
   805  0318                     	;# 
   806  0319                     	;# 
   807  031A                     	;# 
   808  031C                     	;# 
   809  031C                     	;# 
   810  031D                     	;# 
   811  031E                     	;# 
   812  038C                     	;# 
   813  038C                     	;# 
   814  038D                     	;# 
   815  038E                     	;# 
   816  058C                     	;# 
   817  058C                     	;# 
   818  058D                     	;# 
   819  058E                     	;# 
   820  058F                     	;# 
   821  058F                     	;# 
   822  0590                     	;# 
   823  0591                     	;# 
   824  0592                     	;# 
   825  0593                     	;# 
   826  059C                     	;# 
   827  059C                     	;# 
   828  059D                     	;# 
   829  059D                     	;# 
   830  059E                     	;# 
   831  059F                     	;# 
   832  060C                     	;# 
   833  060D                     	;# 
   834  060E                     	;# 
   835  060F                     	;# 
   836  0610                     	;# 
   837  0611                     	;# 
   838  0612                     	;# 
   839  0613                     	;# 
   840  0614                     	;# 
   841  070C                     	;# 
   842  070D                     	;# 
   843  070E                     	;# 
   844  070F                     	;# 
   845  0710                     	;# 
   846  0711                     	;# 
   847  0712                     	;# 
   848  0713                     	;# 
   849  0716                     	;# 
   850  0717                     	;# 
   851  0718                     	;# 
   852  0719                     	;# 
   853  071A                     	;# 
   854  071B                     	;# 
   855  071C                     	;# 
   856  071D                     	;# 
   857  0796                     	;# 
   858  0797                     	;# 
   859  0798                     	;# 
   860  0799                     	;# 
   861  079A                     	;# 
   862  079B                     	;# 
   863  080C                     	;# 
   864  080D                     	;# 
   865  080E                     	;# 
   866  080F                     	;# 
   867  0810                     	;# 
   868  0811                     	;# 
   869  0812                     	;# 
   870  0813                     	;# 
   871  0814                     	;# 
   872  081A                     	;# 
   873  081A                     	;# 
   874  081B                     	;# 
   875  081C                     	;# 
   876  081C                     	;# 
   877  081D                     	;# 
   878  081E                     	;# 
   879  081F                     	;# 
   880  088C                     	;# 
   881  088D                     	;# 
   882  088E                     	;# 
   883  088F                     	;# 
   884  0890                     	;# 
   885  0891                     	;# 
   886  0892                     	;# 
   887  0893                     	;# 
   888  0895                     	;# 
   889  0896                     	;# 
   890  090C                     	;# 
   891  090E                     	;# 
   892  090F                     	;# 
   893  091F                     	;# 
   894  098F                     	;# 
   895  098F                     	;# 
   896  0990                     	;# 
   897  0991                     	;# 
   898  0992                     	;# 
   899  0993                     	;# 
   900  0994                     	;# 
   901  0995                     	;# 
   902  0996                     	;# 
   903  0997                     	;# 
   904  0A19                     	;# 
   905  0A19                     	;# 
   906  0A1A                     	;# 
   907  0A1A                     	;# 
   908  0A1B                     	;# 
   909  0A1B                     	;# 
   910  0A1B                     	;# 
   911  0A1C                     	;# 
   912  0A1C                     	;# 
   913  0A1D                     	;# 
   914  0A1D                     	;# 
   915  0A1E                     	;# 
   916  0A1E                     	;# 
   917  0A1F                     	;# 
   918  0A1F                     	;# 
   919  0A1F                     	;# 
   920  1E0F                     	;# 
   921  1E10                     	;# 
   922  1E11                     	;# 
   923  1E12                     	;# 
   924  1E13                     	;# 
   925  1E14                     	;# 
   926  1E15                     	;# 
   927  1E16                     	;# 
   928  1E17                     	;# 
   929  1E18                     	;# 
   930  1E19                     	;# 
   931  1E1A                     	;# 
   932  1E1B                     	;# 
   933  1E1C                     	;# 
   934  1E1D                     	;# 
   935  1E1E                     	;# 
   936  1E1F                     	;# 
   937  1E20                     	;# 
   938  1E21                     	;# 
   939  1E22                     	;# 
   940  1E23                     	;# 
   941  1E24                     	;# 
   942  1E25                     	;# 
   943  1E26                     	;# 
   944  1E27                     	;# 
   945  1E28                     	;# 
   946  1E29                     	;# 
   947  1E2A                     	;# 
   948  1E2B                     	;# 
   949  1E2C                     	;# 
   950  1E2D                     	;# 
   951  1E2E                     	;# 
   952  1E2F                     	;# 
   953  1E30                     	;# 
   954  1E31                     	;# 
   955  1E32                     	;# 
   956  1E33                     	;# 
   957  1E34                     	;# 
   958  1E35                     	;# 
   959  1E36                     	;# 
   960  1E37                     	;# 
   961  1E8F                     	;# 
   962  1E90                     	;# 
   963  1E91                     	;# 
   964  1E92                     	;# 
   965  1E93                     	;# 
   966  1E9C                     	;# 
   967  1EA1                     	;# 
   968  1EA2                     	;# 
   969  1EB1                     	;# 
   970  1EBB                     	;# 
   971  1EBC                     	;# 
   972  1EBD                     	;# 
   973  1EBE                     	;# 
   974  1EC3                     	;# 
   975  1EC5                     	;# 
   976  1EC6                     	;# 
   977  1EC7                     	;# 
   978  1ECB                     	;# 
   979  1ECC                     	;# 
   980  1ECD                     	;# 
   981  1ECE                     	;# 
   982  1F10                     	;# 
   983  1F11                     	;# 
   984  1F12                     	;# 
   985  1F13                     	;# 
   986  1F14                     	;# 
   987  1F15                     	;# 
   988  1F1C                     	;# 
   989  1F1D                     	;# 
   990  1F1E                     	;# 
   991  1F1F                     	;# 
   992  1F20                     	;# 
   993  1F21                     	;# 
   994  1F22                     	;# 
   995  1F23                     	;# 
   996  1F24                     	;# 
   997  1F25                     	;# 
   998  1F26                     	;# 
   999  1F27                     	;# 
  1000  1F38                     	;# 
  1001  1F39                     	;# 
  1002  1F3A                     	;# 
  1003  1F3B                     	;# 
  1004  1F3C                     	;# 
  1005  1F3D                     	;# 
  1006  1F3E                     	;# 
  1007  1F3F                     	;# 
  1008  1F43                     	;# 
  1009  1F44                     	;# 
  1010  1F45                     	;# 
  1011  1F46                     	;# 
  1012  1F47                     	;# 
  1013  1F48                     	;# 
  1014  1F49                     	;# 
  1015  1F4A                     	;# 
  1016  1F4E                     	;# 
  1017  1F4F                     	;# 
  1018  1F50                     	;# 
  1019  1F51                     	;# 
  1020  1F52                     	;# 
  1021  1F53                     	;# 
  1022  1F54                     	;# 
  1023  1F55                     	;# 
  1024  1FE4                     	;# 
  1025  1FE5                     	;# 
  1026  1FE6                     	;# 
  1027  1FE7                     	;# 
  1028  1FE8                     	;# 
  1029  1FE8                     	;# 
  1030  1FE9                     	;# 
  1031  1FEA                     	;# 
  1032  1FEA                     	;# 
  1033  1FEB                     	;# 
  1034  1FED                     	;# 
  1035  1FEE                     	;# 
  1036  1FEF                     	;# 
  1037  0000                     	;# 
  1038  0001                     	;# 
  1039  0002                     	;# 
  1040  0003                     	;# 
  1041  0004                     	;# 
  1042  0005                     	;# 
  1043  0006                     	;# 
  1044  0007                     	;# 
  1045  0008                     	;# 
  1046  0009                     	;# 
  1047  000A                     	;# 
  1048  000B                     	;# 
  1049  000C                     	;# 
  1050  000D                     	;# 
  1051  000E                     	;# 
  1052  0012                     	;# 
  1053  0013                     	;# 
  1054  0014                     	;# 
  1055  0018                     	;# 
  1056  0019                     	;# 
  1057  001A                     	;# 
  1058  009B                     	;# 
  1059  009B                     	;# 
  1060  009C                     	;# 
  1061  009D                     	;# 
  1062  009E                     	;# 
  1063  009F                     	;# 
  1064  0119                     	;# 
  1065  0119                     	;# 
  1066  0119                     	;# 
  1067  011A                     	;# 
  1068  011A                     	;# 
  1069  011A                     	;# 
  1070  011B                     	;# 
  1071  011B                     	;# 
  1072  011B                     	;# 
  1073  011B                     	;# 
  1074  011B                     	;# 
  1075  011C                     	;# 
  1076  011C                     	;# 
  1077  011C                     	;# 
  1078  011D                     	;# 
  1079  011D                     	;# 
  1080  011D                     	;# 
  1081  011E                     	;# 
  1082  011E                     	;# 
  1083  011E                     	;# 
  1084  011F                     	;# 
  1085  011F                     	;# 
  1086  011F                     	;# 
  1087  011F                     	;# 
  1088  011F                     	;# 
  1089  018C                     	;# 
  1090  018D                     	;# 
  1091  018E                     	;# 
  1092  018F                     	;# 
  1093  0190                     	;# 
  1094  0191                     	;# 
  1095  0192                     	;# 
  1096  020C                     	;# 
  1097  020C                     	;# 
  1098  020D                     	;# 
  1099  020E                     	;# 
  1100  020F                     	;# 
  1101  020F                     	;# 
  1102  0210                     	;# 
  1103  0210                     	;# 
  1104  0211                     	;# 
  1105  0211                     	;# 
  1106  028C                     	;# 
  1107  028C                     	;# 
  1108  028D                     	;# 
  1109  028D                     	;# 
  1110  028E                     	;# 
  1111  028F                     	;# 
  1112  0290                     	;# 
  1113  0291                     	;# 
  1114  030C                     	;# 
  1115  030C                     	;# 
  1116  030D                     	;# 
  1117  030E                     	;# 
  1118  030F                     	;# 
  1119  0310                     	;# 
  1120  0310                     	;# 
  1121  0311                     	;# 
  1122  0312                     	;# 
  1123  0313                     	;# 
  1124  0314                     	;# 
  1125  0314                     	;# 
  1126  0315                     	;# 
  1127  0316                     	;# 
  1128  0318                     	;# 
  1129  0318                     	;# 
  1130  0319                     	;# 
  1131  031A                     	;# 
  1132  031C                     	;# 
  1133  031C                     	;# 
  1134  031D                     	;# 
  1135  031E                     	;# 
  1136  038C                     	;# 
  1137  038C                     	;# 
  1138  038D                     	;# 
  1139  038E                     	;# 
  1140  058C                     	;# 
  1141  058C                     	;# 
  1142  058D                     	;# 
  1143  058E                     	;# 
  1144  058F                     	;# 
  1145  058F                     	;# 
  1146  0590                     	;# 
  1147  0591                     	;# 
  1148  0592                     	;# 
  1149  0593                     	;# 
  1150  059C                     	;# 
  1151  059C                     	;# 
  1152  059D                     	;# 
  1153  059D                     	;# 
  1154  059E                     	;# 
  1155  059F                     	;# 
  1156  060C                     	;# 
  1157  060D                     	;# 
  1158  060E                     	;# 
  1159  060F                     	;# 
  1160  0610                     	;# 
  1161  0611                     	;# 
  1162  0612                     	;# 
  1163  0613                     	;# 
  1164  0614                     	;# 
  1165  070C                     	;# 
  1166  070D                     	;# 
  1167  070E                     	;# 
  1168  070F                     	;# 
  1169  0710                     	;# 
  1170  0711                     	;# 
  1171  0712                     	;# 
  1172  0713                     	;# 
  1173  0716                     	;# 
  1174  0717                     	;# 
  1175  0718                     	;# 
  1176  0719                     	;# 
  1177  071A                     	;# 
  1178  071B                     	;# 
  1179  071C                     	;# 
  1180  071D                     	;# 
  1181  0796                     	;# 
  1182  0797                     	;# 
  1183  0798                     	;# 
  1184  0799                     	;# 
  1185  079A                     	;# 
  1186  079B                     	;# 
  1187  080C                     	;# 
  1188  080D                     	;# 
  1189  080E                     	;# 
  1190  080F                     	;# 
  1191  0810                     	;# 
  1192  0811                     	;# 
  1193  0812                     	;# 
  1194  0813                     	;# 
  1195  0814                     	;# 
  1196  081A                     	;# 
  1197  081A                     	;# 
  1198  081B                     	;# 
  1199  081C                     	;# 
  1200  081C                     	;# 
  1201  081D                     	;# 
  1202  081E                     	;# 
  1203  081F                     	;# 
  1204  088C                     	;# 
  1205  088D                     	;# 
  1206  088E                     	;# 
  1207  088F                     	;# 
  1208  0890                     	;# 
  1209  0891                     	;# 
  1210  0892                     	;# 
  1211  0893                     	;# 
  1212  0895                     	;# 
  1213  0896                     	;# 
  1214  090C                     	;# 
  1215  090E                     	;# 
  1216  090F                     	;# 
  1217  091F                     	;# 
  1218  098F                     	;# 
  1219  098F                     	;# 
  1220  0990                     	;# 
  1221  0991                     	;# 
  1222  0992                     	;# 
  1223  0993                     	;# 
  1224  0994                     	;# 
  1225  0995                     	;# 
  1226  0996                     	;# 
  1227  0997                     	;# 
  1228  0A19                     	;# 
  1229  0A19                     	;# 
  1230  0A1A                     	;# 
  1231  0A1A                     	;# 
  1232  0A1B                     	;# 
  1233  0A1B                     	;# 
  1234  0A1B                     	;# 
  1235  0A1C                     	;# 
  1236  0A1C                     	;# 
  1237  0A1D                     	;# 
  1238  0A1D                     	;# 
  1239  0A1E                     	;# 
  1240  0A1E                     	;# 
  1241  0A1F                     	;# 
  1242  0A1F                     	;# 
  1243  0A1F                     	;# 
  1244  1E0F                     	;# 
  1245  1E10                     	;# 
  1246  1E11                     	;# 
  1247  1E12                     	;# 
  1248  1E13                     	;# 
  1249  1E14                     	;# 
  1250  1E15                     	;# 
  1251  1E16                     	;# 
  1252  1E17                     	;# 
  1253  1E18                     	;# 
  1254  1E19                     	;# 
  1255  1E1A                     	;# 
  1256  1E1B                     	;# 
  1257  1E1C                     	;# 
  1258  1E1D                     	;# 
  1259  1E1E                     	;# 
  1260  1E1F                     	;# 
  1261  1E20                     	;# 
  1262  1E21                     	;# 
  1263  1E22                     	;# 
  1264  1E23                     	;# 
  1265  1E24                     	;# 
  1266  1E25                     	;# 
  1267  1E26                     	;# 
  1268  1E27                     	;# 
  1269  1E28                     	;# 
  1270  1E29                     	;# 
  1271  1E2A                     	;# 
  1272  1E2B                     	;# 
  1273  1E2C                     	;# 
  1274  1E2D                     	;# 
  1275  1E2E                     	;# 
  1276  1E2F                     	;# 
  1277  1E30                     	;# 
  1278  1E31                     	;# 
  1279  1E32                     	;# 
  1280  1E33                     	;# 
  1281  1E34                     	;# 
  1282  1E35                     	;# 
  1283  1E36                     	;# 
  1284  1E37                     	;# 
  1285  1E8F                     	;# 
  1286  1E90                     	;# 
  1287  1E91                     	;# 
  1288  1E92                     	;# 
  1289  1E93                     	;# 
  1290  1E9C                     	;# 
  1291  1EA1                     	;# 
  1292  1EA2                     	;# 
  1293  1EB1                     	;# 
  1294  1EBB                     	;# 
  1295  1EBC                     	;# 
  1296  1EBD                     	;# 
  1297  1EBE                     	;# 
  1298  1EC3                     	;# 
  1299  1EC5                     	;# 
  1300  1EC6                     	;# 
  1301  1EC7                     	;# 
  1302  1ECB                     	;# 
  1303  1ECC                     	;# 
  1304  1ECD                     	;# 
  1305  1ECE                     	;# 
  1306  1F10                     	;# 
  1307  1F11                     	;# 
  1308  1F12                     	;# 
  1309  1F13                     	;# 
  1310  1F14                     	;# 
  1311  1F15                     	;# 
  1312  1F1C                     	;# 
  1313  1F1D                     	;# 
  1314  1F1E                     	;# 
  1315  1F1F                     	;# 
  1316  1F20                     	;# 
  1317  1F21                     	;# 
  1318  1F22                     	;# 
  1319  1F23                     	;# 
  1320  1F24                     	;# 
  1321  1F25                     	;# 
  1322  1F26                     	;# 
  1323  1F27                     	;# 
  1324  1F38                     	;# 
  1325  1F39                     	;# 
  1326  1F3A                     	;# 
  1327  1F3B                     	;# 
  1328  1F3C                     	;# 
  1329  1F3D                     	;# 
  1330  1F3E                     	;# 
  1331  1F3F                     	;# 
  1332  1F43                     	;# 
  1333  1F44                     	;# 
  1334  1F45                     	;# 
  1335  1F46                     	;# 
  1336  1F47                     	;# 
  1337  1F48                     	;# 
  1338  1F49                     	;# 
  1339  1F4A                     	;# 
  1340  1F4E                     	;# 
  1341  1F4F                     	;# 
  1342  1F50                     	;# 
  1343  1F51                     	;# 
  1344  1F52                     	;# 
  1345  1F53                     	;# 
  1346  1F54                     	;# 
  1347  1F55                     	;# 
  1348  1FE4                     	;# 
  1349  1FE5                     	;# 
  1350  1FE6                     	;# 
  1351  1FE7                     	;# 
  1352  1FE8                     	;# 
  1353  1FE8                     	;# 
  1354  1FE9                     	;# 
  1355  1FEA                     	;# 
  1356  1FEA                     	;# 
  1357  1FEB                     	;# 
  1358  1FED                     	;# 
  1359  1FEE                     	;# 
  1360  1FEF                     	;# 
  1361  0000                     	;# 
  1362  0001                     	;# 
  1363  0002                     	;# 
  1364  0003                     	;# 
  1365  0004                     	;# 
  1366  0005                     	;# 
  1367  0006                     	;# 
  1368  0007                     	;# 
  1369  0008                     	;# 
  1370  0009                     	;# 
  1371  000A                     	;# 
  1372  000B                     	;# 
  1373  000C                     	;# 
  1374  000D                     	;# 
  1375  000E                     	;# 
  1376  0012                     	;# 
  1377  0013                     	;# 
  1378  0014                     	;# 
  1379  0018                     	;# 
  1380  0019                     	;# 
  1381  001A                     	;# 
  1382  009B                     	;# 
  1383  009B                     	;# 
  1384  009C                     	;# 
  1385  009D                     	;# 
  1386  009E                     	;# 
  1387  009F                     	;# 
  1388  0119                     	;# 
  1389  0119                     	;# 
  1390  0119                     	;# 
  1391  011A                     	;# 
  1392  011A                     	;# 
  1393  011A                     	;# 
  1394  011B                     	;# 
  1395  011B                     	;# 
  1396  011B                     	;# 
  1397  011B                     	;# 
  1398  011B                     	;# 
  1399  011C                     	;# 
  1400  011C                     	;# 
  1401  011C                     	;# 
  1402  011D                     	;# 
  1403  011D                     	;# 
  1404  011D                     	;# 
  1405  011E                     	;# 
  1406  011E                     	;# 
  1407  011E                     	;# 
  1408  011F                     	;# 
  1409  011F                     	;# 
  1410  011F                     	;# 
  1411  011F                     	;# 
  1412  011F                     	;# 
  1413  018C                     	;# 
  1414  018D                     	;# 
  1415  018E                     	;# 
  1416  018F                     	;# 
  1417  0190                     	;# 
  1418  0191                     	;# 
  1419  0192                     	;# 
  1420  020C                     	;# 
  1421  020C                     	;# 
  1422  020D                     	;# 
  1423  020E                     	;# 
  1424  020F                     	;# 
  1425  020F                     	;# 
  1426  0210                     	;# 
  1427  0210                     	;# 
  1428  0211                     	;# 
  1429  0211                     	;# 
  1430  028C                     	;# 
  1431  028C                     	;# 
  1432  028D                     	;# 
  1433  028D                     	;# 
  1434  028E                     	;# 
  1435  028F                     	;# 
  1436  0290                     	;# 
  1437  0291                     	;# 
  1438  030C                     	;# 
  1439  030C                     	;# 
  1440  030D                     	;# 
  1441  030E                     	;# 
  1442  030F                     	;# 
  1443  0310                     	;# 
  1444  0310                     	;# 
  1445  0311                     	;# 
  1446  0312                     	;# 
  1447  0313                     	;# 
  1448  0314                     	;# 
  1449  0314                     	;# 
  1450  0315                     	;# 
  1451  0316                     	;# 
  1452  0318                     	;# 
  1453  0318                     	;# 
  1454  0319                     	;# 
  1455  031A                     	;# 
  1456  031C                     	;# 
  1457  031C                     	;# 
  1458  031D                     	;# 
  1459  031E                     	;# 
  1460  038C                     	;# 
  1461  038C                     	;# 
  1462  038D                     	;# 
  1463  038E                     	;# 
  1464  058C                     	;# 
  1465  058C                     	;# 
  1466  058D                     	;# 
  1467  058E                     	;# 
  1468  058F                     	;# 
  1469  058F                     	;# 
  1470  0590                     	;# 
  1471  0591                     	;# 
  1472  0592                     	;# 
  1473  0593                     	;# 
  1474  059C                     	;# 
  1475  059C                     	;# 
  1476  059D                     	;# 
  1477  059D                     	;# 
  1478  059E                     	;# 
  1479  059F                     	;# 
  1480  060C                     	;# 
  1481  060D                     	;# 
  1482  060E                     	;# 
  1483  060F                     	;# 
  1484  0610                     	;# 
  1485  0611                     	;# 
  1486  0612                     	;# 
  1487  0613                     	;# 
  1488  0614                     	;# 
  1489  070C                     	;# 
  1490  070D                     	;# 
  1491  070E                     	;# 
  1492  070F                     	;# 
  1493  0710                     	;# 
  1494  0711                     	;# 
  1495  0712                     	;# 
  1496  0713                     	;# 
  1497  0716                     	;# 
  1498  0717                     	;# 
  1499  0718                     	;# 
  1500  0719                     	;# 
  1501  071A                     	;# 
  1502  071B                     	;# 
  1503  071C                     	;# 
  1504  071D                     	;# 
  1505  0796                     	;# 
  1506  0797                     	;# 
  1507  0798                     	;# 
  1508  0799                     	;# 
  1509  079A                     	;# 
  1510  079B                     	;# 
  1511  080C                     	;# 
  1512  080D                     	;# 
  1513  080E                     	;# 
  1514  080F                     	;# 
  1515  0810                     	;# 
  1516  0811                     	;# 
  1517  0812                     	;# 
  1518  0813                     	;# 
  1519  0814                     	;# 
  1520  081A                     	;# 
  1521  081A                     	;# 
  1522  081B                     	;# 
  1523  081C                     	;# 
  1524  081C                     	;# 
  1525  081D                     	;# 
  1526  081E                     	;# 
  1527  081F                     	;# 
  1528  088C                     	;# 
  1529  088D                     	;# 
  1530  088E                     	;# 
  1531  088F                     	;# 
  1532  0890                     	;# 
  1533  0891                     	;# 
  1534  0892                     	;# 
  1535  0893                     	;# 
  1536  0895                     	;# 
  1537  0896                     	;# 
  1538  090C                     	;# 
  1539  090E                     	;# 
  1540  090F                     	;# 
  1541  091F                     	;# 
  1542  098F                     	;# 
  1543  098F                     	;# 
  1544  0990                     	;# 
  1545  0991                     	;# 
  1546  0992                     	;# 
  1547  0993                     	;# 
  1548  0994                     	;# 
  1549  0995                     	;# 
  1550  0996                     	;# 
  1551  0997                     	;# 
  1552  0A19                     	;# 
  1553  0A19                     	;# 
  1554  0A1A                     	;# 
  1555  0A1A                     	;# 
  1556  0A1B                     	;# 
  1557  0A1B                     	;# 
  1558  0A1B                     	;# 
  1559  0A1C                     	;# 
  1560  0A1C                     	;# 
  1561  0A1D                     	;# 
  1562  0A1D                     	;# 
  1563  0A1E                     	;# 
  1564  0A1E                     	;# 
  1565  0A1F                     	;# 
  1566  0A1F                     	;# 
  1567  0A1F                     	;# 
  1568  1E0F                     	;# 
  1569  1E10                     	;# 
  1570  1E11                     	;# 
  1571  1E12                     	;# 
  1572  1E13                     	;# 
  1573  1E14                     	;# 
  1574  1E15                     	;# 
  1575  1E16                     	;# 
  1576  1E17                     	;# 
  1577  1E18                     	;# 
  1578  1E19                     	;# 
  1579  1E1A                     	;# 
  1580  1E1B                     	;# 
  1581  1E1C                     	;# 
  1582  1E1D                     	;# 
  1583  1E1E                     	;# 
  1584  1E1F                     	;# 
  1585  1E20                     	;# 
  1586  1E21                     	;# 
  1587  1E22                     	;# 
  1588  1E23                     	;# 
  1589  1E24                     	;# 
  1590  1E25                     	;# 
  1591  1E26                     	;# 
  1592  1E27                     	;# 
  1593  1E28                     	;# 
  1594  1E29                     	;# 
  1595  1E2A                     	;# 
  1596  1E2B                     	;# 
  1597  1E2C                     	;# 
  1598  1E2D                     	;# 
  1599  1E2E                     	;# 
  1600  1E2F                     	;# 
  1601  1E30                     	;# 
  1602  1E31                     	;# 
  1603  1E32                     	;# 
  1604  1E33                     	;# 
  1605  1E34                     	;# 
  1606  1E35                     	;# 
  1607  1E36                     	;# 
  1608  1E37                     	;# 
  1609  1E8F                     	;# 
  1610  1E90                     	;# 
  1611  1E91                     	;# 
  1612  1E92                     	;# 
  1613  1E93                     	;# 
  1614  1E9C                     	;# 
  1615  1EA1                     	;# 
  1616  1EA2                     	;# 
  1617  1EB1                     	;# 
  1618  1EBB                     	;# 
  1619  1EBC                     	;# 
  1620  1EBD                     	;# 
  1621  1EBE                     	;# 
  1622  1EC3                     	;# 
  1623  1EC5                     	;# 
  1624  1EC6                     	;# 
  1625  1EC7                     	;# 
  1626  1ECB                     	;# 
  1627  1ECC                     	;# 
  1628  1ECD                     	;# 
  1629  1ECE                     	;# 
  1630  1F10                     	;# 
  1631  1F11                     	;# 
  1632  1F12                     	;# 
  1633  1F13                     	;# 
  1634  1F14                     	;# 
  1635  1F15                     	;# 
  1636  1F1C                     	;# 
  1637  1F1D                     	;# 
  1638  1F1E                     	;# 
  1639  1F1F                     	;# 
  1640  1F20                     	;# 
  1641  1F21                     	;# 
  1642  1F22                     	;# 
  1643  1F23                     	;# 
  1644  1F24                     	;# 
  1645  1F25                     	;# 
  1646  1F26                     	;# 
  1647  1F27                     	;# 
  1648  1F38                     	;# 
  1649  1F39                     	;# 
  1650  1F3A                     	;# 
  1651  1F3B                     	;# 
  1652  1F3C                     	;# 
  1653  1F3D                     	;# 
  1654  1F3E                     	;# 
  1655  1F3F                     	;# 
  1656  1F43                     	;# 
  1657  1F44                     	;# 
  1658  1F45                     	;# 
  1659  1F46                     	;# 
  1660  1F47                     	;# 
  1661  1F48                     	;# 
  1662  1F49                     	;# 
  1663  1F4A                     	;# 
  1664  1F4E                     	;# 
  1665  1F4F                     	;# 
  1666  1F50                     	;# 
  1667  1F51                     	;# 
  1668  1F52                     	;# 
  1669  1F53                     	;# 
  1670  1F54                     	;# 
  1671  1F55                     	;# 
  1672  1FE4                     	;# 
  1673  1FE5                     	;# 
  1674  1FE6                     	;# 
  1675  1FE7                     	;# 
  1676  1FE8                     	;# 
  1677  1FE8                     	;# 
  1678  1FE9                     	;# 
  1679  1FEA                     	;# 
  1680  1FEA                     	;# 
  1681  1FEB                     	;# 
  1682  1FED                     	;# 
  1683  1FEE                     	;# 
  1684  1FEF                     	;# 
  1685  0000                     	;# 
  1686  0001                     	;# 
  1687  0002                     	;# 
  1688  0003                     	;# 
  1689  0004                     	;# 
  1690  0005                     	;# 
  1691  0006                     	;# 
  1692  0007                     	;# 
  1693  0008                     	;# 
  1694  0009                     	;# 
  1695  000A                     	;# 
  1696  000B                     	;# 
  1697  000C                     	;# 
  1698  000D                     	;# 
  1699  000E                     	;# 
  1700  0012                     	;# 
  1701  0013                     	;# 
  1702  0014                     	;# 
  1703  0018                     	;# 
  1704  0019                     	;# 
  1705  001A                     	;# 
  1706  009B                     	;# 
  1707  009B                     	;# 
  1708  009C                     	;# 
  1709  009D                     	;# 
  1710  009E                     	;# 
  1711  009F                     	;# 
  1712  0119                     	;# 
  1713  0119                     	;# 
  1714  0119                     	;# 
  1715  011A                     	;# 
  1716  011A                     	;# 
  1717  011A                     	;# 
  1718  011B                     	;# 
  1719  011B                     	;# 
  1720  011B                     	;# 
  1721  011B                     	;# 
  1722  011B                     	;# 
  1723  011C                     	;# 
  1724  011C                     	;# 
  1725  011C                     	;# 
  1726  011D                     	;# 
  1727  011D                     	;# 
  1728  011D                     	;# 
  1729  011E                     	;# 
  1730  011E                     	;# 
  1731  011E                     	;# 
  1732  011F                     	;# 
  1733  011F                     	;# 
  1734  011F                     	;# 
  1735  011F                     	;# 
  1736  011F                     	;# 
  1737  018C                     	;# 
  1738  018D                     	;# 
  1739  018E                     	;# 
  1740  018F                     	;# 
  1741  0190                     	;# 
  1742  0191                     	;# 
  1743  0192                     	;# 
  1744  020C                     	;# 
  1745  020C                     	;# 
  1746  020D                     	;# 
  1747  020E                     	;# 
  1748  020F                     	;# 
  1749  020F                     	;# 
  1750  0210                     	;# 
  1751  0210                     	;# 
  1752  0211                     	;# 
  1753  0211                     	;# 
  1754  028C                     	;# 
  1755  028C                     	;# 
  1756  028D                     	;# 
  1757  028D                     	;# 
  1758  028E                     	;# 
  1759  028F                     	;# 
  1760  0290                     	;# 
  1761  0291                     	;# 
  1762  030C                     	;# 
  1763  030C                     	;# 
  1764  030D                     	;# 
  1765  030E                     	;# 
  1766  030F                     	;# 
  1767  0310                     	;# 
  1768  0310                     	;# 
  1769  0311                     	;# 
  1770  0312                     	;# 
  1771  0313                     	;# 
  1772  0314                     	;# 
  1773  0314                     	;# 
  1774  0315                     	;# 
  1775  0316                     	;# 
  1776  0318                     	;# 
  1777  0318                     	;# 
  1778  0319                     	;# 
  1779  031A                     	;# 
  1780  031C                     	;# 
  1781  031C                     	;# 
  1782  031D                     	;# 
  1783  031E                     	;# 
  1784  038C                     	;# 
  1785  038C                     	;# 
  1786  038D                     	;# 
  1787  038E                     	;# 
  1788  058C                     	;# 
  1789  058C                     	;# 
  1790  058D                     	;# 
  1791  058E                     	;# 
  1792  058F                     	;# 
  1793  058F                     	;# 
  1794  0590                     	;# 
  1795  0591                     	;# 
  1796  0592                     	;# 
  1797  0593                     	;# 
  1798  059C                     	;# 
  1799  059C                     	;# 
  1800  059D                     	;# 
  1801  059D                     	;# 
  1802  059E                     	;# 
  1803  059F                     	;# 
  1804  060C                     	;# 
  1805  060D                     	;# 
  1806  060E                     	;# 
  1807  060F                     	;# 
  1808  0610                     	;# 
  1809  0611                     	;# 
  1810  0612                     	;# 
  1811  0613                     	;# 
  1812  0614                     	;# 
  1813  070C                     	;# 
  1814  070D                     	;# 
  1815  070E                     	;# 
  1816  070F                     	;# 
  1817  0710                     	;# 
  1818  0711                     	;# 
  1819  0712                     	;# 
  1820  0713                     	;# 
  1821  0716                     	;# 
  1822  0717                     	;# 
  1823  0718                     	;# 
  1824  0719                     	;# 
  1825  071A                     	;# 
  1826  071B                     	;# 
  1827  071C                     	;# 
  1828  071D                     	;# 
  1829  0796                     	;# 
  1830  0797                     	;# 
  1831  0798                     	;# 
  1832  0799                     	;# 
  1833  079A                     	;# 
  1834  079B                     	;# 
  1835  080C                     	;# 
  1836  080D                     	;# 
  1837  080E                     	;# 
  1838  080F                     	;# 
  1839  0810                     	;# 
  1840  0811                     	;# 
  1841  0812                     	;# 
  1842  0813                     	;# 
  1843  0814                     	;# 
  1844  081A                     	;# 
  1845  081A                     	;# 
  1846  081B                     	;# 
  1847  081C                     	;# 
  1848  081C                     	;# 
  1849  081D                     	;# 
  1850  081E                     	;# 
  1851  081F                     	;# 
  1852  088C                     	;# 
  1853  088D                     	;# 
  1854  088E                     	;# 
  1855  088F                     	;# 
  1856  0890                     	;# 
  1857  0891                     	;# 
  1858  0892                     	;# 
  1859  0893                     	;# 
  1860  0895                     	;# 
  1861  0896                     	;# 
  1862  090C                     	;# 
  1863  090E                     	;# 
  1864  090F                     	;# 
  1865  091F                     	;# 
  1866  098F                     	;# 
  1867  098F                     	;# 
  1868  0990                     	;# 
  1869  0991                     	;# 
  1870  0992                     	;# 
  1871  0993                     	;# 
  1872  0994                     	;# 
  1873  0995                     	;# 
  1874  0996                     	;# 
  1875  0997                     	;# 
  1876  0A19                     	;# 
  1877  0A19                     	;# 
  1878  0A1A                     	;# 
  1879  0A1A                     	;# 
  1880  0A1B                     	;# 
  1881  0A1B                     	;# 
  1882  0A1B                     	;# 
  1883  0A1C                     	;# 
  1884  0A1C                     	;# 
  1885  0A1D                     	;# 
  1886  0A1D                     	;# 
  1887  0A1E                     	;# 
  1888  0A1E                     	;# 
  1889  0A1F                     	;# 
  1890  0A1F                     	;# 
  1891  0A1F                     	;# 
  1892  1E0F                     	;# 
  1893  1E10                     	;# 
  1894  1E11                     	;# 
  1895  1E12                     	;# 
  1896  1E13                     	;# 
  1897  1E14                     	;# 
  1898  1E15                     	;# 
  1899  1E16                     	;# 
  1900  1E17                     	;# 
  1901  1E18                     	;# 
  1902  1E19                     	;# 
  1903  1E1A                     	;# 
  1904  1E1B                     	;# 
  1905  1E1C                     	;# 
  1906  1E1D                     	;# 
  1907  1E1E                     	;# 
  1908  1E1F                     	;# 
  1909  1E20                     	;# 
  1910  1E21                     	;# 
  1911  1E22                     	;# 
  1912  1E23                     	;# 
  1913  1E24                     	;# 
  1914  1E25                     	;# 
  1915  1E26                     	;# 
  1916  1E27                     	;# 
  1917  1E28                     	;# 
  1918  1E29                     	;# 
  1919  1E2A                     	;# 
  1920  1E2B                     	;# 
  1921  1E2C                     	;# 
  1922  1E2D                     	;# 
  1923  1E2E                     	;# 
  1924  1E2F                     	;# 
  1925  1E30                     	;# 
  1926  1E31                     	;# 
  1927  1E32                     	;# 
  1928  1E33                     	;# 
  1929  1E34                     	;# 
  1930  1E35                     	;# 
  1931  1E36                     	;# 
  1932  1E37                     	;# 
  1933  1E8F                     	;# 
  1934  1E90                     	;# 
  1935  1E91                     	;# 
  1936  1E92                     	;# 
  1937  1E93                     	;# 
  1938  1E9C                     	;# 
  1939  1EA1                     	;# 
  1940  1EA2                     	;# 
  1941  1EB1                     	;# 
  1942  1EBB                     	;# 
  1943  1EBC                     	;# 
  1944  1EBD                     	;# 
  1945  1EBE                     	;# 
  1946  1EC3                     	;# 
  1947  1EC5                     	;# 
  1948  1EC6                     	;# 
  1949  1EC7                     	;# 
  1950  1ECB                     	;# 
  1951  1ECC                     	;# 
  1952  1ECD                     	;# 
  1953  1ECE                     	;# 
  1954  1F10                     	;# 
  1955  1F11                     	;# 
  1956  1F12                     	;# 
  1957  1F13                     	;# 
  1958  1F14                     	;# 
  1959  1F15                     	;# 
  1960  1F1C                     	;# 
  1961  1F1D                     	;# 
  1962  1F1E                     	;# 
  1963  1F1F                     	;# 
  1964  1F20                     	;# 
  1965  1F21                     	;# 
  1966  1F22                     	;# 
  1967  1F23                     	;# 
  1968  1F24                     	;# 
  1969  1F25                     	;# 
  1970  1F26                     	;# 
  1971  1F27                     	;# 
  1972  1F38                     	;# 
  1973  1F39                     	;# 
  1974  1F3A                     	;# 
  1975  1F3B                     	;# 
  1976  1F3C                     	;# 
  1977  1F3D                     	;# 
  1978  1F3E                     	;# 
  1979  1F3F                     	;# 
  1980  1F43                     	;# 
  1981  1F44                     	;# 
  1982  1F45                     	;# 
  1983  1F46                     	;# 
  1984  1F47                     	;# 
  1985  1F48                     	;# 
  1986  1F49                     	;# 
  1987  1F4A                     	;# 
  1988  1F4E                     	;# 
  1989  1F4F                     	;# 
  1990  1F50                     	;# 
  1991  1F51                     	;# 
  1992  1F52                     	;# 
  1993  1F53                     	;# 
  1994  1F54                     	;# 
  1995  1F55                     	;# 
  1996  1FE4                     	;# 
  1997  1FE5                     	;# 
  1998  1FE6                     	;# 
  1999  1FE7                     	;# 
  2000  1FE8                     	;# 
  2001  1FE8                     	;# 
  2002  1FE9                     	;# 
  2003  1FEA                     	;# 
  2004  1FEA                     	;# 
  2005  1FEB                     	;# 
  2006  1FED                     	;# 
  2007  1FEE                     	;# 
  2008  1FEF                     	;# 
  2009  0000                     	;# 
  2010  0001                     	;# 
  2011  0002                     	;# 
  2012  0003                     	;# 
  2013  0004                     	;# 
  2014  0005                     	;# 
  2015  0006                     	;# 
  2016  0007                     	;# 
  2017  0008                     	;# 
  2018  0009                     	;# 
  2019  000A                     	;# 
  2020  000B                     	;# 
  2021  000C                     	;# 
  2022  000D                     	;# 
  2023  000E                     	;# 
  2024  0012                     	;# 
  2025  0013                     	;# 
  2026  0014                     	;# 
  2027  0018                     	;# 
  2028  0019                     	;# 
  2029  001A                     	;# 
  2030  009B                     	;# 
  2031  009B                     	;# 
  2032  009C                     	;# 
  2033  009D                     	;# 
  2034  009E                     	;# 
  2035  009F                     	;# 
  2036  0119                     	;# 
  2037  0119                     	;# 
  2038  0119                     	;# 
  2039  011A                     	;# 
  2040  011A                     	;# 
  2041  011A                     	;# 
  2042  011B                     	;# 
  2043  011B                     	;# 
  2044  011B                     	;# 
  2045  011B                     	;# 
  2046  011B                     	;# 
  2047  011C                     	;# 
  2048  011C                     	;# 
  2049  011C                     	;# 
  2050  011D                     	;# 
  2051  011D                     	;# 
  2052  011D                     	;# 
  2053  011E                     	;# 
  2054  011E                     	;# 
  2055  011E                     	;# 
  2056  011F                     	;# 
  2057  011F                     	;# 
  2058  011F                     	;# 
  2059  011F                     	;# 
  2060  011F                     	;# 
  2061  018C                     	;# 
  2062  018D                     	;# 
  2063  018E                     	;# 
  2064  018F                     	;# 
  2065  0190                     	;# 
  2066  0191                     	;# 
  2067  0192                     	;# 
  2068  020C                     	;# 
  2069  020C                     	;# 
  2070  020D                     	;# 
  2071  020E                     	;# 
  2072  020F                     	;# 
  2073  020F                     	;# 
  2074  0210                     	;# 
  2075  0210                     	;# 
  2076  0211                     	;# 
  2077  0211                     	;# 
  2078  028C                     	;# 
  2079  028C                     	;# 
  2080  028D                     	;# 
  2081  028D                     	;# 
  2082  028E                     	;# 
  2083  028F                     	;# 
  2084  0290                     	;# 
  2085  0291                     	;# 
  2086  030C                     	;# 
  2087  030C                     	;# 
  2088  030D                     	;# 
  2089  030E                     	;# 
  2090  030F                     	;# 
  2091  0310                     	;# 
  2092  0310                     	;# 
  2093  0311                     	;# 
  2094  0312                     	;# 
  2095  0313                     	;# 
  2096  0314                     	;# 
  2097  0314                     	;# 
  2098  0315                     	;# 
  2099  0316                     	;# 
  2100  0318                     	;# 
  2101  0318                     	;# 
  2102  0319                     	;# 
  2103  031A                     	;# 
  2104  031C                     	;# 
  2105  031C                     	;# 
  2106  031D                     	;# 
  2107  031E                     	;# 
  2108  038C                     	;# 
  2109  038C                     	;# 
  2110  038D                     	;# 
  2111  038E                     	;# 
  2112  058C                     	;# 
  2113  058C                     	;# 
  2114  058D                     	;# 
  2115  058E                     	;# 
  2116  058F                     	;# 
  2117  058F                     	;# 
  2118  0590                     	;# 
  2119  0591                     	;# 
  2120  0592                     	;# 
  2121  0593                     	;# 
  2122  059C                     	;# 
  2123  059C                     	;# 
  2124  059D                     	;# 
  2125  059D                     	;# 
  2126  059E                     	;# 
  2127  059F                     	;# 
  2128  060C                     	;# 
  2129  060D                     	;# 
  2130  060E                     	;# 
  2131  060F                     	;# 
  2132  0610                     	;# 
  2133  0611                     	;# 
  2134  0612                     	;# 
  2135  0613                     	;# 
  2136  0614                     	;# 
  2137  070C                     	;# 
  2138  070D                     	;# 
  2139  070E                     	;# 
  2140  070F                     	;# 
  2141  0710                     	;# 
  2142  0711                     	;# 
  2143  0712                     	;# 
  2144  0713                     	;# 
  2145  0716                     	;# 
  2146  0717                     	;# 
  2147  0718                     	;# 
  2148  0719                     	;# 
  2149  071A                     	;# 
  2150  071B                     	;# 
  2151  071C                     	;# 
  2152  071D                     	;# 
  2153  0796                     	;# 
  2154  0797                     	;# 
  2155  0798                     	;# 
  2156  0799                     	;# 
  2157  079A                     	;# 
  2158  079B                     	;# 
  2159  080C                     	;# 
  2160  080D                     	;# 
  2161  080E                     	;# 
  2162  080F                     	;# 
  2163  0810                     	;# 
  2164  0811                     	;# 
  2165  0812                     	;# 
  2166  0813                     	;# 
  2167  0814                     	;# 
  2168  081A                     	;# 
  2169  081A                     	;# 
  2170  081B                     	;# 
  2171  081C                     	;# 
  2172  081C                     	;# 
  2173  081D                     	;# 
  2174  081E                     	;# 
  2175  081F                     	;# 
  2176  088C                     	;# 
  2177  088D                     	;# 
  2178  088E                     	;# 
  2179  088F                     	;# 
  2180  0890                     	;# 
  2181  0891                     	;# 
  2182  0892                     	;# 
  2183  0893                     	;# 
  2184  0895                     	;# 
  2185  0896                     	;# 
  2186  090C                     	;# 
  2187  090E                     	;# 
  2188  090F                     	;# 
  2189  091F                     	;# 
  2190  098F                     	;# 
  2191  098F                     	;# 
  2192  0990                     	;# 
  2193  0991                     	;# 
  2194  0992                     	;# 
  2195  0993                     	;# 
  2196  0994                     	;# 
  2197  0995                     	;# 
  2198  0996                     	;# 
  2199  0997                     	;# 
  2200  0A19                     	;# 
  2201  0A19                     	;# 
  2202  0A1A                     	;# 
  2203  0A1A                     	;# 
  2204  0A1B                     	;# 
  2205  0A1B                     	;# 
  2206  0A1B                     	;# 
  2207  0A1C                     	;# 
  2208  0A1C                     	;# 
  2209  0A1D                     	;# 
  2210  0A1D                     	;# 
  2211  0A1E                     	;# 
  2212  0A1E                     	;# 
  2213  0A1F                     	;# 
  2214  0A1F                     	;# 
  2215  0A1F                     	;# 
  2216  1E0F                     	;# 
  2217  1E10                     	;# 
  2218  1E11                     	;# 
  2219  1E12                     	;# 
  2220  1E13                     	;# 
  2221  1E14                     	;# 
  2222  1E15                     	;# 
  2223  1E16                     	;# 
  2224  1E17                     	;# 
  2225  1E18                     	;# 
  2226  1E19                     	;# 
  2227  1E1A                     	;# 
  2228  1E1B                     	;# 
  2229  1E1C                     	;# 
  2230  1E1D                     	;# 
  2231  1E1E                     	;# 
  2232  1E1F                     	;# 
  2233  1E20                     	;# 
  2234  1E21                     	;# 
  2235  1E22                     	;# 
  2236  1E23                     	;# 
  2237  1E24                     	;# 
  2238  1E25                     	;# 
  2239  1E26                     	;# 
  2240  1E27                     	;# 
  2241  1E28                     	;# 
  2242  1E29                     	;# 
  2243  1E2A                     	;# 
  2244  1E2B                     	;# 
  2245  1E2C                     	;# 
  2246  1E2D                     	;# 
  2247  1E2E                     	;# 
  2248  1E2F                     	;# 
  2249  1E30                     	;# 
  2250  1E31                     	;# 
  2251  1E32                     	;# 
  2252  1E33                     	;# 
  2253  1E34                     	;# 
  2254  1E35                     	;# 
  2255  1E36                     	;# 
  2256  1E37                     	;# 
  2257  1E8F                     	;# 
  2258  1E90                     	;# 
  2259  1E91                     	;# 
  2260  1E92                     	;# 
  2261  1E93                     	;# 
  2262  1E9C                     	;# 
  2263  1EA1                     	;# 
  2264  1EA2                     	;# 
  2265  1EB1                     	;# 
  2266  1EBB                     	;# 
  2267  1EBC                     	;# 
  2268  1EBD                     	;# 
  2269  1EBE                     	;# 
  2270  1EC3                     	;# 
  2271  1EC5                     	;# 
  2272  1EC6                     	;# 
  2273  1EC7                     	;# 
  2274  1ECB                     	;# 
  2275  1ECC                     	;# 
  2276  1ECD                     	;# 
  2277  1ECE                     	;# 
  2278  1F10                     	;# 
  2279  1F11                     	;# 
  2280  1F12                     	;# 
  2281  1F13                     	;# 
  2282  1F14                     	;# 
  2283  1F15                     	;# 
  2284  1F1C                     	;# 
  2285  1F1D                     	;# 
  2286  1F1E                     	;# 
  2287  1F1F                     	;# 
  2288  1F20                     	;# 
  2289  1F21                     	;# 
  2290  1F22                     	;# 
  2291  1F23                     	;# 
  2292  1F24                     	;# 
  2293  1F25                     	;# 
  2294  1F26                     	;# 
  2295  1F27                     	;# 
  2296  1F38                     	;# 
  2297  1F39                     	;# 
  2298  1F3A                     	;# 
  2299  1F3B                     	;# 
  2300  1F3C                     	;# 
  2301  1F3D                     	;# 
  2302  1F3E                     	;# 
  2303  1F3F                     	;# 
  2304  1F43                     	;# 
  2305  1F44                     	;# 
  2306  1F45                     	;# 
  2307  1F46                     	;# 
  2308  1F47                     	;# 
  2309  1F48                     	;# 
  2310  1F49                     	;# 
  2311  1F4A                     	;# 
  2312  1F4E                     	;# 
  2313  1F4F                     	;# 
  2314  1F50                     	;# 
  2315  1F51                     	;# 
  2316  1F52                     	;# 
  2317  1F53                     	;# 
  2318  1F54                     	;# 
  2319  1F55                     	;# 
  2320  1FE4                     	;# 
  2321  1FE5                     	;# 
  2322  1FE6                     	;# 
  2323  1FE7                     	;# 
  2324  1FE8                     	;# 
  2325  1FE8                     	;# 
  2326  1FE9                     	;# 
  2327  1FEA                     	;# 
  2328  1FEA                     	;# 
  2329  1FEB                     	;# 
  2330  1FED                     	;# 
  2331  1FEE                     	;# 
  2332  1FEF                     	;# 
  2333  0000                     	;# 
  2334  0001                     	;# 
  2335  0002                     	;# 
  2336  0003                     	;# 
  2337  0004                     	;# 
  2338  0005                     	;# 
  2339  0006                     	;# 
  2340  0007                     	;# 
  2341  0008                     	;# 
  2342  0009                     	;# 
  2343  000A                     	;# 
  2344  000B                     	;# 
  2345  000C                     	;# 
  2346  000D                     	;# 
  2347  000E                     	;# 
  2348  0012                     	;# 
  2349  0013                     	;# 
  2350  0014                     	;# 
  2351  0018                     	;# 
  2352  0019                     	;# 
  2353  001A                     	;# 
  2354  009B                     	;# 
  2355  009B                     	;# 
  2356  009C                     	;# 
  2357  009D                     	;# 
  2358  009E                     	;# 
  2359  009F                     	;# 
  2360  0119                     	;# 
  2361  0119                     	;# 
  2362  0119                     	;# 
  2363  011A                     	;# 
  2364  011A                     	;# 
  2365  011A                     	;# 
  2366  011B                     	;# 
  2367  011B                     	;# 
  2368  011B                     	;# 
  2369  011B                     	;# 
  2370  011B                     	;# 
  2371  011C                     	;# 
  2372  011C                     	;# 
  2373  011C                     	;# 
  2374  011D                     	;# 
  2375  011D                     	;# 
  2376  011D                     	;# 
  2377  011E                     	;# 
  2378  011E                     	;# 
  2379  011E                     	;# 
  2380  011F                     	;# 
  2381  011F                     	;# 
  2382  011F                     	;# 
  2383  011F                     	;# 
  2384  011F                     	;# 
  2385  018C                     	;# 
  2386  018D                     	;# 
  2387  018E                     	;# 
  2388  018F                     	;# 
  2389  0190                     	;# 
  2390  0191                     	;# 
  2391  0192                     	;# 
  2392  020C                     	;# 
  2393  020C                     	;# 
  2394  020D                     	;# 
  2395  020E                     	;# 
  2396  020F                     	;# 
  2397  020F                     	;# 
  2398  0210                     	;# 
  2399  0210                     	;# 
  2400  0211                     	;# 
  2401  0211                     	;# 
  2402  028C                     	;# 
  2403  028C                     	;# 
  2404  028D                     	;# 
  2405  028D                     	;# 
  2406  028E                     	;# 
  2407  028F                     	;# 
  2408  0290                     	;# 
  2409  0291                     	;# 
  2410  030C                     	;# 
  2411  030C                     	;# 
  2412  030D                     	;# 
  2413  030E                     	;# 
  2414  030F                     	;# 
  2415  0310                     	;# 
  2416  0310                     	;# 
  2417  0311                     	;# 
  2418  0312                     	;# 
  2419  0313                     	;# 
  2420  0314                     	;# 
  2421  0314                     	;# 
  2422  0315                     	;# 
  2423  0316                     	;# 
  2424  0318                     	;# 
  2425  0318                     	;# 
  2426  0319                     	;# 
  2427  031A                     	;# 
  2428  031C                     	;# 
  2429  031C                     	;# 
  2430  031D                     	;# 
  2431  031E                     	;# 
  2432  038C                     	;# 
  2433  038C                     	;# 
  2434  038D                     	;# 
  2435  038E                     	;# 
  2436  058C                     	;# 
  2437  058C                     	;# 
  2438  058D                     	;# 
  2439  058E                     	;# 
  2440  058F                     	;# 
  2441  058F                     	;# 
  2442  0590                     	;# 
  2443  0591                     	;# 
  2444  0592                     	;# 
  2445  0593                     	;# 
  2446  059C                     	;# 
  2447  059C                     	;# 
  2448  059D                     	;# 
  2449  059D                     	;# 
  2450  059E                     	;# 
  2451  059F                     	;# 
  2452  060C                     	;# 
  2453  060D                     	;# 
  2454  060E                     	;# 
  2455  060F                     	;# 
  2456  0610                     	;# 
  2457  0611                     	;# 
  2458  0612                     	;# 
  2459  0613                     	;# 
  2460  0614                     	;# 
  2461  070C                     	;# 
  2462  070D                     	;# 
  2463  070E                     	;# 
  2464  070F                     	;# 
  2465  0710                     	;# 
  2466  0711                     	;# 
  2467  0712                     	;# 
  2468  0713                     	;# 
  2469  0716                     	;# 
  2470  0717                     	;# 
  2471  0718                     	;# 
  2472  0719                     	;# 
  2473  071A                     	;# 
  2474  071B                     	;# 
  2475  071C                     	;# 
  2476  071D                     	;# 
  2477  0796                     	;# 
  2478  0797                     	;# 
  2479  0798                     	;# 
  2480  0799                     	;# 
  2481  079A                     	;# 
  2482  079B                     	;# 
  2483  080C                     	;# 
  2484  080D                     	;# 
  2485  080E                     	;# 
  2486  080F                     	;# 
  2487  0810                     	;# 
  2488  0811                     	;# 
  2489  0812                     	;# 
  2490  0813                     	;# 
  2491  0814                     	;# 
  2492  081A                     	;# 
  2493  081A                     	;# 
  2494  081B                     	;# 
  2495  081C                     	;# 
  2496  081C                     	;# 
  2497  081D                     	;# 
  2498  081E                     	;# 
  2499  081F                     	;# 
  2500  088C                     	;# 
  2501  088D                     	;# 
  2502  088E                     	;# 
  2503  088F                     	;# 
  2504  0890                     	;# 
  2505  0891                     	;# 
  2506  0892                     	;# 
  2507  0893                     	;# 
  2508  0895                     	;# 
  2509  0896                     	;# 
  2510  090C                     	;# 
  2511  090E                     	;# 
  2512  090F                     	;# 
  2513  091F                     	;# 
  2514  098F                     	;# 
  2515  098F                     	;# 
  2516  0990                     	;# 
  2517  0991                     	;# 
  2518  0992                     	;# 
  2519  0993                     	;# 
  2520  0994                     	;# 
  2521  0995                     	;# 
  2522  0996                     	;# 
  2523  0997                     	;# 
  2524  0A19                     	;# 
  2525  0A19                     	;# 
  2526  0A1A                     	;# 
  2527  0A1A                     	;# 
  2528  0A1B                     	;# 
  2529  0A1B                     	;# 
  2530  0A1B                     	;# 
  2531  0A1C                     	;# 
  2532  0A1C                     	;# 
  2533  0A1D                     	;# 
  2534  0A1D                     	;# 
  2535  0A1E                     	;# 
  2536  0A1E                     	;# 
  2537  0A1F                     	;# 
  2538  0A1F                     	;# 
  2539  0A1F                     	;# 
  2540  1E0F                     	;# 
  2541  1E10                     	;# 
  2542  1E11                     	;# 
  2543  1E12                     	;# 
  2544  1E13                     	;# 
  2545  1E14                     	;# 
  2546  1E15                     	;# 
  2547  1E16                     	;# 
  2548  1E17                     	;# 
  2549  1E18                     	;# 
  2550  1E19                     	;# 
  2551  1E1A                     	;# 
  2552  1E1B                     	;# 
  2553  1E1C                     	;# 
  2554  1E1D                     	;# 
  2555  1E1E                     	;# 
  2556  1E1F                     	;# 
  2557  1E20                     	;# 
  2558  1E21                     	;# 
  2559  1E22                     	;# 
  2560  1E23                     	;# 
  2561  1E24                     	;# 
  2562  1E25                     	;# 
  2563  1E26                     	;# 
  2564  1E27                     	;# 
  2565  1E28                     	;# 
  2566  1E29                     	;# 
  2567  1E2A                     	;# 
  2568  1E2B                     	;# 
  2569  1E2C                     	;# 
  2570  1E2D                     	;# 
  2571  1E2E                     	;# 
  2572  1E2F                     	;# 
  2573  1E30                     	;# 
  2574  1E31                     	;# 
  2575  1E32                     	;# 
  2576  1E33                     	;# 
  2577  1E34                     	;# 
  2578  1E35                     	;# 
  2579  1E36                     	;# 
  2580  1E37                     	;# 
  2581  1E8F                     	;# 
  2582  1E90                     	;# 
  2583  1E91                     	;# 
  2584  1E92                     	;# 
  2585  1E93                     	;# 
  2586  1E9C                     	;# 
  2587  1EA1                     	;# 
  2588  1EA2                     	;# 
  2589  1EB1                     	;# 
  2590  1EBB                     	;# 
  2591  1EBC                     	;# 
  2592  1EBD                     	;# 
  2593  1EBE                     	;# 
  2594  1EC3                     	;# 
  2595  1EC5                     	;# 
  2596  1EC6                     	;# 
  2597  1EC7                     	;# 
  2598  1ECB                     	;# 
  2599  1ECC                     	;# 
  2600  1ECD                     	;# 
  2601  1ECE                     	;# 
  2602  1F10                     	;# 
  2603  1F11                     	;# 
  2604  1F12                     	;# 
  2605  1F13                     	;# 
  2606  1F14                     	;# 
  2607  1F15                     	;# 
  2608  1F1C                     	;# 
  2609  1F1D                     	;# 
  2610  1F1E                     	;# 
  2611  1F1F                     	;# 
  2612  1F20                     	;# 
  2613  1F21                     	;# 
  2614  1F22                     	;# 
  2615  1F23                     	;# 
  2616  1F24                     	;# 
  2617  1F25                     	;# 
  2618  1F26                     	;# 
  2619  1F27                     	;# 
  2620  1F38                     	;# 
  2621  1F39                     	;# 
  2622  1F3A                     	;# 
  2623  1F3B                     	;# 
  2624  1F3C                     	;# 
  2625  1F3D                     	;# 
  2626  1F3E                     	;# 
  2627  1F3F                     	;# 
  2628  1F43                     	;# 
  2629  1F44                     	;# 
  2630  1F45                     	;# 
  2631  1F46                     	;# 
  2632  1F47                     	;# 
  2633  1F48                     	;# 
  2634  1F49                     	;# 
  2635  1F4A                     	;# 
  2636  1F4E                     	;# 
  2637  1F4F                     	;# 
  2638  1F50                     	;# 
  2639  1F51                     	;# 
  2640  1F52                     	;# 
  2641  1F53                     	;# 
  2642  1F54                     	;# 
  2643  1F55                     	;# 
  2644  1FE4                     	;# 
  2645  1FE5                     	;# 
  2646  1FE6                     	;# 
  2647  1FE7                     	;# 
  2648  1FE8                     	;# 
  2649  1FE8                     	;# 
  2650  1FE9                     	;# 
  2651  1FEA                     	;# 
  2652  1FEA                     	;# 
  2653  1FEB                     	;# 
  2654  1FED                     	;# 
  2655  1FEE                     	;# 
  2656  1FEF                     	;# 
  2657                           
  2658 ;; Function _EUSART2_DefaultFramingErrorHandler is unused but had its address taken
  2659  0000                     
  2660 ;; Function _EUSART2_DefaultOverrunErrorHandler is unused but had its address taken
  2661  0000                     
  2662 ;; Function _EUSART2_DefaultErrorHandler is unused but had its address taken
  2663  0000                     
  2664 ;; Function _EUSART1_DefaultFramingErrorHandler is unused but had its address taken
  2665  0000                     
  2666 ;; Function _EUSART1_DefaultOverrunErrorHandler is unused but had its address taken
  2667  0000                     
  2668 ;; Function _EUSART1_DefaultErrorHandler is unused but had its address taken
  2669  0014                     _TRISC	set	20
  2670  0013                     _TRISB	set	19
  2671  0012                     _TRISA	set	18
  2672  001A                     _LATC	set	26
  2673  0019                     _LATB	set	25
  2674  0018                     _LATA	set	24
  2675  001A                     _LATCbits	set	26
  2676  009D                     _ADCON0bits	set	157
  2677  009C                     _ADRESH	set	156
  2678  009B                     _ADRESL	set	155
  2679  009E                     _ADCON1	set	158
  2680  009D                     _ADCON0	set	157
  2681  011A                     _TX1REG	set	282
  2682  0119                     _RC1REG	set	281
  2683  011D                     _RC1STAbits	set	285
  2684  011E                     _TX1STAbits	set	286
  2685  011C                     _SP1BRGH	set	284
  2686  011B                     _SP1BRGL	set	283
  2687  011E                     _TX1STA	set	286
  2688  011D                     _RC1STA	set	285
  2689  011F                     _BAUD1CON	set	287
  2690  028D                     _PR2	set	653
  2691  028C                     _TMR2	set	652
  2692  028E                     _T2CONbits	set	654
  2693  0291                     _T2RSTbits	set	657
  2694  028F                     _T2HLTbits	set	655
  2695  028E                     _T2CON	set	654
  2696  028C                     _T2TMR	set	652
  2697  028D                     _T2PR	set	653
  2698  0291                     _T2RST	set	657
  2699  028F                     _T2HLT	set	655
  2700  0290                     _T2CLKCON	set	656
  2701  0318                     _PWM4DCL	set	792
  2702  0319                     _PWM4DCH	set	793
  2703  031A                     _PWM4CON	set	794
  2704  0710                     _PIR4bits	set	1808
  2705  070F                     _PIR3bits	set	1807
  2706  079B                     _PMD5	set	1947
  2707  079A                     _PMD4	set	1946
  2708  0799                     _PMD3	set	1945
  2709  0798                     _PMD2	set	1944
  2710  0797                     _PMD1	set	1943
  2711  0796                     _PMD0	set	1942
  2712  0892                     _OSCTUNE	set	2194
  2713  0890                     _OSCSTAT	set	2192
  2714  0893                     _OSCFRQ	set	2195
  2715  0891                     _OSCEN	set	2193
  2716  088F                     _OSCCON3	set	2191
  2717  088D                     _OSCCON1	set	2189
  2718  4480                     _PLLR	set	17536
  2719  0A1A                     _TX2REG	set	2586
  2720  0A19                     _RC2REG	set	2585
  2721  0A1D                     _RC2STAbits	set	2589
  2722  0A1E                     _TX2STAbits	set	2590
  2723  0A1C                     _SP2BRGH	set	2588
  2724  0A1B                     _SP2BRGL	set	2587
  2725  0A1E                     _TX2STA	set	2590
  2726  0A1D                     _RC2STA	set	2589
  2727  0A1F                     _BAUD2CON	set	2591
  2728  1ECB                     _RX1DTPPS	set	7883
  2729  1ECD                     _RX2DTPPS	set	7885
  2730  1F22                     _RC2PPS	set	7970
  2731  1F1D                     _RB5PPS	set	7965
  2732  1F1F                     _RB7PPS	set	7967
  2733  1F51                     _SLRCONC	set	8017
  2734  1F46                     _SLRCONB	set	8006
  2735  1F3B                     _SLRCONA	set	7995
  2736  1F50                     _ODCONC	set	8016
  2737  1F45                     _ODCONB	set	8005
  2738  1F3A                     _ODCONA	set	7994
  2739  1F4F                     _WPUC	set	8015
  2740  1F39                     _WPUA	set	7993
  2741  1F44                     _WPUB	set	8004
  2742  1F38                     _ANSELA	set	7992
  2743  1F43                     _ANSELB	set	8003
  2744  1F4E                     _ANSELC	set	8014
  2745                           
  2746                           ; #config settings
  2747  0000                     
  2748                           	psect	cinit
  2749  07EE                     start_initialization:	
  2750  07EE                     __initialization:	
  2751                           
  2752                           ; Clear objects allocated to COMMON
  2753  07EE  3070               	movlw	low __pbssCOMMON
  2754  07EF  0084               	movwf	4
  2755  07F0  3000               	movlw	high __pbssCOMMON
  2756  07F1  0085               	movwf	5
  2757  07F2  300A               	movlw	10
  2758  07F3  3186  269F  3187   	fcall	clear_ram0
  2759                           
  2760                           ; Clear objects allocated to BANK0
  2761  07F6  3020               	movlw	low __pbssBANK0
  2762  07F7  0084               	movwf	4
  2763  07F8  3000               	movlw	high __pbssBANK0
  2764  07F9  0085               	movwf	5
  2765  07FA  3020               	movlw	32
  2766  07FB  3186  269F         	fcall	clear_ram0
  2767  07FD                     end_of_initialization:	
  2768                           ;End of C runtime variable initialization code
  2769                           
  2770  07FD                     __end_of__initialization:	
  2771  07FD  0140               	movlb	0
  2772  07FE  3187  2F44         	ljmp	_main	;jump to C main() function
  2773                           
  2774                           	psect	bssCOMMON
  2775  0070                     __pbssCOMMON:	
  2776  0070                     _eusart1RxLastError:	
  2777  0070                     	ds	1
  2778  0071                     _eusart2RxLastError:	
  2779  0071                     	ds	1
  2780  0072                     _i8_R_Temperature:	
  2781  0072                     	ds	1
  2782  0073                     _i8_F_Temperature:	
  2783  0073                     	ds	1
  2784  0074                     _u8_Door_Open:	
  2785  0074                     	ds	1
  2786  0075                     _u8_ErrorCodes:	
  2787  0075                     	ds	1
  2788  0076                     _u8_Compressor_PIN:	
  2789  0076                     	ds	1
  2790  0077                     _u8_RxData:	
  2791  0077                     	ds	1
  2792  0078                     _u8_Tx_Status:	
  2793  0078                     	ds	1
  2794  0079                     _u8_Index:	
  2795  0079                     	ds	1
  2796                           
  2797                           	psect	bssBANK0
  2798  0020                     __pbssBANK0:	
  2799  0020                     _u8_Tx_DataBuff:	
  2800  0020                     	ds	10
  2801  002A                     _u8_Rx_DataBuff:	
  2802  002A                     	ds	10
  2803  0034                     _EUSART1_ErrorHandler:	
  2804  0034                     	ds	2
  2805  0036                     _EUSART1_OverrunErrorHandler:	
  2806  0036                     	ds	2
  2807  0038                     _EUSART1_FramingErrorHandler:	
  2808  0038                     	ds	2
  2809  003A                     _EUSART2_ErrorHandler:	
  2810  003A                     	ds	2
  2811  003C                     _EUSART2_OverrunErrorHandler:	
  2812  003C                     	ds	2
  2813  003E                     _EUSART2_FramingErrorHandler:	
  2814  003E                     	ds	2
  2815                           
  2816                           	psect	clrtext
  2817  069F                     clear_ram0:	
  2818                           ;	Called with FSR0 containing the base address, and
  2819                           ;	WREG with the size to clear
  2820                           
  2821  069F  0064               	clrwdt	;clear the watchdog before getting into this loop
  2822  06A0                     clrloop0:	
  2823  06A0  0180               	clrf	0	;clear RAM location pointed to by FSR
  2824  06A1  3101               	addfsr 0,1
  2825  06A2  0B89               	decfsz	9,f	;Have we reached the end of clearing yet?
  2826  06A3  2EA0               	goto	clrloop0	;have we reached the end yet?
  2827  06A4  3400               	retlw	0	;all done for this memory range, return
  2828                           
  2829                           	psect	cstackCOMMON
  2830  007A                     __pcstackCOMMON:	
  2831  007A                     ?_EUSART1_Read:	
  2832  007A                     ??_EUSART1_Read:	
  2833                           ; 1 bytes @ 0x0
  2834                           
  2835  007A                     ?_EUSART1_Write:	
  2836                           ; 1 bytes @ 0x0
  2837                           
  2838  007A                     ??_EUSART1_Write:	
  2839                           ; 1 bytes @ 0x0
  2840                           
  2841  007A                     ?_SYSTEM_Initialize:	
  2842                           ; 1 bytes @ 0x0
  2843                           
  2844  007A                     ?_EUSART2_SetFramingErrorHandler:	
  2845                           ; 1 bytes @ 0x0
  2846                           
  2847  007A                     ?_EUSART2_SetOverrunErrorHandler:	
  2848                           ; 1 bytes @ 0x0
  2849                           
  2850  007A                     ?_EUSART2_SetErrorHandler:	
  2851                           ; 1 bytes @ 0x0
  2852                           
  2853  007A                     ?_EUSART1_SetFramingErrorHandler:	
  2854                           ; 1 bytes @ 0x0
  2855                           
  2856  007A                     ?_EUSART1_SetOverrunErrorHandler:	
  2857                           ; 1 bytes @ 0x0
  2858                           
  2859  007A                     ?_EUSART1_SetErrorHandler:	
  2860                           ; 1 bytes @ 0x0
  2861                           
  2862  007A                     ?_PMD_Initialize:	
  2863                           ; 1 bytes @ 0x0
  2864                           
  2865  007A                     ??_PMD_Initialize:	
  2866                           ; 1 bytes @ 0x0
  2867                           
  2868  007A                     ?_PIN_MANAGER_Initialize:	
  2869                           ; 1 bytes @ 0x0
  2870                           
  2871  007A                     ??_PIN_MANAGER_Initialize:	
  2872                           ; 1 bytes @ 0x0
  2873                           
  2874  007A                     ?_OSCILLATOR_Initialize:	
  2875                           ; 1 bytes @ 0x0
  2876                           
  2877  007A                     ??_OSCILLATOR_Initialize:	
  2878                           ; 1 bytes @ 0x0
  2879                           
  2880  007A                     ?_PWM4_Initialize:	
  2881                           ; 1 bytes @ 0x0
  2882                           
  2883  007A                     ??_PWM4_Initialize:	
  2884                           ; 1 bytes @ 0x0
  2885                           
  2886  007A                     ?_v_uart_receive:	
  2887                           ; 1 bytes @ 0x0
  2888                           
  2889  007A                     ??_v_uart_receive:	
  2890                           ; 1 bytes @ 0x0
  2891                           
  2892  007A                     ?_v_uart_send:	
  2893                           ; 1 bytes @ 0x0
  2894                           
  2895  007A                     ?_main:	
  2896                           ; 1 bytes @ 0x0
  2897                           
  2898  007A                     ?_TMR2_Initialize:	
  2899                           ; 1 bytes @ 0x0
  2900                           
  2901  007A                     ??_TMR2_Initialize:	
  2902                           ; 1 bytes @ 0x0
  2903                           
  2904  007A                     ?_ADC_Initialize:	
  2905                           ; 1 bytes @ 0x0
  2906                           
  2907  007A                     ??_ADC_Initialize:	
  2908                           ; 1 bytes @ 0x0
  2909                           
  2910  007A                     ?_EUSART2_Initialize:	
  2911                           ; 1 bytes @ 0x0
  2912                           
  2913  007A                     ?_EUSART1_Initialize:	
  2914                           ; 1 bytes @ 0x0
  2915                           
  2916  007A                     EUSART1_Write@txData:	
  2917                           ; 1 bytes @ 0x0
  2918                           
  2919  007A                     EUSART2_SetFramingErrorHandler@interruptHandler:	
  2920                           ; 1 bytes @ 0x0
  2921                           
  2922  007A                     EUSART2_SetOverrunErrorHandler@interruptHandler:	
  2923                           ; 2 bytes @ 0x0
  2924                           
  2925  007A                     EUSART2_SetErrorHandler@interruptHandler:	
  2926                           ; 2 bytes @ 0x0
  2927                           
  2928  007A                     EUSART1_SetFramingErrorHandler@interruptHandler:	
  2929                           ; 2 bytes @ 0x0
  2930                           
  2931  007A                     EUSART1_SetOverrunErrorHandler@interruptHandler:	
  2932                           ; 2 bytes @ 0x0
  2933                           
  2934  007A                     EUSART1_SetErrorHandler@interruptHandler:	
  2935                           ; 2 bytes @ 0x0
  2936                           
  2937                           
  2938                           ; 2 bytes @ 0x0
  2939  007A                     	ds	1
  2940  007B                     ??_v_uart_send:	
  2941                           
  2942                           ; 1 bytes @ 0x1
  2943  007B                     	ds	1
  2944  007C                     ??_SYSTEM_Initialize:	
  2945  007C                     ??_EUSART2_SetFramingErrorHandler:	
  2946                           ; 1 bytes @ 0x2
  2947                           
  2948  007C                     ??_EUSART2_SetOverrunErrorHandler:	
  2949                           ; 1 bytes @ 0x2
  2950                           
  2951  007C                     ??_EUSART2_SetErrorHandler:	
  2952                           ; 1 bytes @ 0x2
  2953                           
  2954  007C                     ??_EUSART1_SetFramingErrorHandler:	
  2955                           ; 1 bytes @ 0x2
  2956                           
  2957  007C                     ??_EUSART1_SetOverrunErrorHandler:	
  2958                           ; 1 bytes @ 0x2
  2959                           
  2960  007C                     ??_EUSART1_SetErrorHandler:	
  2961                           ; 1 bytes @ 0x2
  2962                           
  2963  007C                     ??_main:	
  2964                           ; 1 bytes @ 0x2
  2965                           
  2966  007C                     ??_EUSART2_Initialize:	
  2967                           ; 1 bytes @ 0x2
  2968                           
  2969  007C                     ??_EUSART1_Initialize:	
  2970                           ; 1 bytes @ 0x2
  2971                           
  2972                           
  2973                           ; 1 bytes @ 0x2
  2974  007C                     	ds	1
  2975                           
  2976                           	psect	maintext
  2977  0744                     __pmaintext:	
  2978 ;;
  2979 ;;Main: autosize = 0, tempsize = 1, incstack = 0, save=0
  2980 ;;
  2981 ;; *************** function _main *****************
  2982 ;; Defined at:
  2983 ;;		line 111 in file "main.c"
  2984 ;; Parameters:    Size  Location     Type
  2985 ;;		None
  2986 ;; Auto vars:     Size  Location     Type
  2987 ;;		None
  2988 ;; Return value:  Size  Location     Type
  2989 ;;                  1    wreg      void 
  2990 ;; Registers used:
  2991 ;;		wreg, fsr1l, fsr1h, status,2, status,0, pclath, cstack
  2992 ;; Tracked objects:
  2993 ;;		On entry : B3F/0
  2994 ;;		On exit  : 0/0
  2995 ;;		Unchanged: 0/0
  2996 ;; Data sizes:     COMMON   BANK0   BANK1   BANK2   BANK3   BANK4   BANK5   BANK6
  2997 ;;      Params:         0       0       0       0       0       0       0       0
  2998 ;;      Locals:         0       0       0       0       0       0       0       0
  2999 ;;      Temps:          1       0       0       0       0       0       0       0
  3000 ;;      Totals:         1       0       0       0       0       0       0       0
  3001 ;;Total ram usage:        1 bytes
  3002 ;; Hardware stack levels required when called:    3
  3003 ;; This function calls:
  3004 ;;		_SYSTEM_Initialize
  3005 ;;		_v_uart_receive
  3006 ;;		_v_uart_send
  3007 ;; This function is called by:
  3008 ;;		Startup code after reset
  3009 ;; This function uses a non-reentrant model
  3010 ;;
  3011                           
  3012                           
  3013                           ;psect for function _main
  3014  0744                     _main:	
  3015                           
  3016                           ;main.c: 114:     SYSTEM_Initialize();
  3017                           
  3018                           ;incstack = 0
  3019                           ; Regs used in _main: [wreg+fsr1l+fsr1h+status,2+status,0+pclath+cstack]
  3020  0744  3186  26EA  3187   	fcall	_SYSTEM_Initialize
  3021                           
  3022                           ;main.c: 131:     u8_Tx_Status = 1;
  3023  0747  01F8               	clrf	_u8_Tx_Status
  3024  0748  0AF8               	incf	_u8_Tx_Status,f
  3025                           
  3026                           ;main.c: 133:     u8_ErrorCodes = 0x00;
  3027  0749  01F5               	clrf	_u8_ErrorCodes
  3028                           
  3029                           ;main.c: 134:     i8_F_Temperature = -25;
  3030  074A  30E7               	movlw	231
  3031  074B  00FC               	movwf	??_main
  3032  074C  087C               	movf	??_main,w
  3033  074D  00F3               	movwf	_i8_F_Temperature
  3034                           
  3035                           ;main.c: 135:     i8_R_Temperature = 0;
  3036  074E  01F2               	clrf	_i8_R_Temperature
  3037                           
  3038                           ;main.c: 136:     u8_Door_Open = 1;
  3039  074F  01F4               	clrf	_u8_Door_Open
  3040  0750  0AF4               	incf	_u8_Door_Open,f
  3041  0751                     l1413:	
  3042                           
  3043                           ;main.c: 140:     {;main.c: 143:         if (u8_Tx_Status) {
  3044  0751  0878               	movf	_u8_Tx_Status,w
  3045  0752  1903               	btfsc	3,2
  3046  0753  2F59               	goto	l1419
  3047                           
  3048                           ;main.c: 144:             v_uart_send();
  3049  0754  3187  278D  3187   	fcall	_v_uart_send
  3050                           
  3051                           ;main.c: 145:             u8_Tx_Status = 0;
  3052  0757  01F8               	clrf	_u8_Tx_Status
  3053                           
  3054                           ;main.c: 146:         } else {
  3055  0758  2F5C               	goto	l1421
  3056  0759                     l1419:	
  3057                           
  3058                           ;main.c: 147:             v_uart_receive();
  3059  0759  3187  27B9  3187   	fcall	_v_uart_receive
  3060  075C                     l1421:	
  3061                           
  3062                           ;main.c: 150:         if (u8_Compressor_PIN) {
  3063  075C  0876               	movf	_u8_Compressor_PIN,w
  3064  075D  1903               	btfsc	3,2
  3065  075E  2F62               	goto	l66
  3066                           
  3067                           ;main.c: 151:             do { LATCbits.LATC7 = 1; } while(0);
  3068  075F  0140               	movlb	0	; select bank0
  3069  0760  179A               	bsf	26,7	;volatile
  3070  0761  2F51               	goto	l1413
  3071  0762                     l66:	
  3072                           ;main.c: 153:             do { LATCbits.LATC7 = 0; } while(0);
  3073                           
  3074  0762  0140               	movlb	0	; select bank0
  3075  0763  139A               	bcf	26,7	;volatile
  3076  0764  2F51               	goto	l1413
  3077  0765                     __end_of_main:	
  3078                           
  3079                           	psect	text1
  3080  078D                     __ptext1:	
  3081 ;; *************** function _v_uart_send *****************
  3082 ;; Defined at:
  3083 ;;		line 90 in file "main.c"
  3084 ;; Parameters:    Size  Location     Type
  3085 ;;		None
  3086 ;; Auto vars:     Size  Location     Type
  3087 ;;		None
  3088 ;; Return value:  Size  Location     Type
  3089 ;;                  1    wreg      void 
  3090 ;; Registers used:
  3091 ;;		wreg, fsr1l, fsr1h, status,2, status,0, pclath, cstack
  3092 ;; Tracked objects:
  3093 ;;		On entry : 0/0
  3094 ;;		On exit  : 0/0
  3095 ;;		Unchanged: 0/0
  3096 ;; Data sizes:     COMMON   BANK0   BANK1   BANK2   BANK3   BANK4   BANK5   BANK6
  3097 ;;      Params:         0       0       0       0       0       0       0       0
  3098 ;;      Locals:         0       0       0       0       0       0       0       0
  3099 ;;      Temps:          1       0       0       0       0       0       0       0
  3100 ;;      Totals:         1       0       0       0       0       0       0       0
  3101 ;;Total ram usage:        1 bytes
  3102 ;; Hardware stack levels used:    1
  3103 ;; Hardware stack levels required when called:    1
  3104 ;; This function calls:
  3105 ;;		_EUSART1_Write
  3106 ;; This function is called by:
  3107 ;;		_main
  3108 ;; This function uses a non-reentrant model
  3109 ;;
  3110                           
  3111                           
  3112                           ;psect for function _v_uart_send
  3113  078D                     _v_uart_send:	
  3114                           
  3115                           ;main.c: 92:     u8_Tx_DataBuff[0] = 0xAA;
  3116                           
  3117                           ;incstack = 0
  3118                           ; Regs used in _v_uart_send: [wreg+fsr1l+fsr1h+status,2+status,0+pclath+cstack]
  3119  078D  30AA               	movlw	170
  3120  078E  00FB               	movwf	??_v_uart_send
  3121  078F  087B               	movf	??_v_uart_send,w
  3122  0790  0140               	movlb	0	; select bank0
  3123  0791  00A0               	movwf	_u8_Tx_DataBuff	;volatile
  3124                           
  3125                           ;main.c: 93:     u8_Tx_DataBuff[1] = u8_ErrorCodes;
  3126  0792  0875               	movf	_u8_ErrorCodes,w
  3127  0793  00FB               	movwf	??_v_uart_send
  3128  0794  087B               	movf	??_v_uart_send,w
  3129  0795  00A1               	movwf	_u8_Tx_DataBuff+1	;volatile
  3130                           
  3131                           ;main.c: 94:     u8_Tx_DataBuff[2] = (uint8_t)i8_F_Temperature;
  3132  0796  0873               	movf	_i8_F_Temperature,w
  3133  0797  00FB               	movwf	??_v_uart_send
  3134  0798  087B               	movf	??_v_uart_send,w
  3135  0799  00A2               	movwf	_u8_Tx_DataBuff+2	;volatile
  3136                           
  3137                           ;main.c: 95:     u8_Tx_DataBuff[3] = (uint8_t)i8_R_Temperature;
  3138  079A  0872               	movf	_i8_R_Temperature,w
  3139  079B  00FB               	movwf	??_v_uart_send
  3140  079C  087B               	movf	??_v_uart_send,w
  3141  079D  00A3               	movwf	_u8_Tx_DataBuff+3	;volatile
  3142                           
  3143                           ;main.c: 96:     u8_Tx_DataBuff[4] = u8_Door_Open;
  3144  079E  0874               	movf	_u8_Door_Open,w
  3145  079F  00FB               	movwf	??_v_uart_send
  3146  07A0  087B               	movf	??_v_uart_send,w
  3147  07A1  00A4               	movwf	_u8_Tx_DataBuff+4	;volatile
  3148                           
  3149                           ;main.c: 97:     u8_Tx_DataBuff[5] = 0x00;
  3150  07A2  01A5               	clrf	_u8_Tx_DataBuff+5	;volatile
  3151                           
  3152                           ;main.c: 98:     u8_Tx_DataBuff[6] = 0x00;
  3153  07A3  01A6               	clrf	_u8_Tx_DataBuff+6	;volatile
  3154                           
  3155                           ;main.c: 99:     u8_Tx_DataBuff[7] = 0x00;
  3156  07A4  01A7               	clrf	_u8_Tx_DataBuff+7	;volatile
  3157                           
  3158                           ;main.c: 100:     u8_Tx_DataBuff[8] = 0x00;
  3159  07A5  01A8               	clrf	_u8_Tx_DataBuff+8	;volatile
  3160                           
  3161                           ;main.c: 101:     u8_Tx_DataBuff[9] = 0x00;
  3162  07A6  01A9               	clrf	_u8_Tx_DataBuff+9	;volatile
  3163                           
  3164                           ;main.c: 104:     for (u8_Index = 0; u8_Index <= 9; u8_Index++) {
  3165  07A7  01F9               	clrf	_u8_Index
  3166  07A8                     L1:	
  3167  07A8  300A               	movlw	10
  3168  07A9  0279               	subwf	_u8_Index,w
  3169  07AA  1803               	btfsc	3,0
  3170  07AB  0008               	return
  3171                           
  3172                           ;main.c: 105:         EUSART1_Write(u8_Tx_DataBuff[u8_Index]);
  3173  07AC  0879               	movf	_u8_Index,w
  3174  07AD  3E20               	addlw	(low (_u8_Tx_DataBuff| 0))& (0+255)
  3175  07AE  0086               	movwf	6
  3176  07AF  0187               	clrf	7
  3177  07B0  0801               	movf	1,w
  3178  07B1  3186  26BD  3187   	fcall	_EUSART1_Write
  3179                           
  3180                           ;main.c: 106:     }
  3181  07B4  3001               	movlw	1
  3182  07B5  00FB               	movwf	??_v_uart_send
  3183  07B6  087B               	movf	??_v_uart_send,w
  3184  07B7  07F9               	addwf	_u8_Index,f
  3185  07B8  2FA8               	goto	L1
  3186  07B9                     __end_of_v_uart_send:	
  3187                           
  3188                           	psect	text2
  3189  06BD                     __ptext2:	
  3190 ;; *************** function _EUSART1_Write *****************
  3191 ;; Defined at:
  3192 ;;		line 131 in file "mcc_generated_files/eusart1.c"
  3193 ;; Parameters:    Size  Location     Type
  3194 ;;  txData          1    wreg     unsigned char 
  3195 ;; Auto vars:     Size  Location     Type
  3196 ;;  txData          1    0[COMMON] unsigned char 
  3197 ;; Return value:  Size  Location     Type
  3198 ;;                  1    wreg      void 
  3199 ;; Registers used:
  3200 ;;		wreg
  3201 ;; Tracked objects:
  3202 ;;		On entry : 0/0
  3203 ;;		On exit  : 0/0
  3204 ;;		Unchanged: 0/0
  3205 ;; Data sizes:     COMMON   BANK0   BANK1   BANK2   BANK3   BANK4   BANK5   BANK6
  3206 ;;      Params:         0       0       0       0       0       0       0       0
  3207 ;;      Locals:         1       0       0       0       0       0       0       0
  3208 ;;      Temps:          0       0       0       0       0       0       0       0
  3209 ;;      Totals:         1       0       0       0       0       0       0       0
  3210 ;;Total ram usage:        1 bytes
  3211 ;; Hardware stack levels used:    1
  3212 ;; This function calls:
  3213 ;;		Nothing
  3214 ;; This function is called by:
  3215 ;;		_v_uart_send
  3216 ;; This function uses a non-reentrant model
  3217 ;;
  3218                           
  3219                           
  3220                           ;psect for function _EUSART1_Write
  3221  06BD                     _EUSART1_Write:	
  3222                           
  3223                           ;incstack = 0
  3224                           ; Regs used in _EUSART1_Write: [wreg]
  3225                           ;EUSART1_Write@txData stored from wreg
  3226  06BD  00FA               	movwf	EUSART1_Write@txData
  3227  06BE                     l328:	
  3228                           ;mcc_generated_files/eusart1.c: 134:     {;mcc_generated_files/eusart1.c: 135:     }
  3229                           
  3230                           
  3231                           ;mcc_generated_files/eusart1.c: 133:     while(0 == PIR3bits.TX1IF)
  3232  06BE  014E               	movlb	14	; select bank14
  3233  06BF  1E0F               	btfss	15,4	;volatile
  3234  06C0  2EBE               	goto	l328
  3235                           
  3236                           ;mcc_generated_files/eusart1.c: 137:     TX1REG = txData;
  3237  06C1  087A               	movf	EUSART1_Write@txData,w
  3238  06C2  0142               	movlb	2	; select bank2
  3239  06C3  009A               	movwf	26	;volatile
  3240  06C4  0008               	return
  3241  06C5                     __end_of_EUSART1_Write:	
  3242                           
  3243                           	psect	text3
  3244  07B9                     __ptext3:	
  3245 ;; *************** function _v_uart_receive *****************
  3246 ;; Defined at:
  3247 ;;		line 66 in file "main.c"
  3248 ;; Parameters:    Size  Location     Type
  3249 ;;		None
  3250 ;; Auto vars:     Size  Location     Type
  3251 ;;		None
  3252 ;; Return value:  Size  Location     Type
  3253 ;;                  1    wreg      void 
  3254 ;; Registers used:
  3255 ;;		wreg, fsr1l, fsr1h, status,2, status,0, pclath, cstack
  3256 ;; Tracked objects:
  3257 ;;		On entry : 0/0
  3258 ;;		On exit  : 0/0
  3259 ;;		Unchanged: 0/0
  3260 ;; Data sizes:     COMMON   BANK0   BANK1   BANK2   BANK3   BANK4   BANK5   BANK6
  3261 ;;      Params:         0       0       0       0       0       0       0       0
  3262 ;;      Locals:         0       0       0       0       0       0       0       0
  3263 ;;      Temps:          1       0       0       0       0       0       0       0
  3264 ;;      Totals:         1       0       0       0       0       0       0       0
  3265 ;;Total ram usage:        1 bytes
  3266 ;; Hardware stack levels used:    1
  3267 ;; Hardware stack levels required when called:    1
  3268 ;; This function calls:
  3269 ;;		_EUSART1_Read
  3270 ;; This function is called by:
  3271 ;;		_main
  3272 ;; This function uses a non-reentrant model
  3273 ;;
  3274                           
  3275                           
  3276                           ;psect for function _v_uart_receive
  3277  07B9                     _v_uart_receive:	
  3278                           
  3279                           ;main.c: 67:     if(PIR3bits.RC1IF == 0){
  3280                           
  3281                           ;incstack = 0
  3282                           ; Regs used in _v_uart_receive: [wreg+fsr1l+fsr1h+status,2+status,0+pclath+cstack]
  3283  07B9  014E               	movlb	14	; select bank14
  3284  07BA  1E8F               	btfss	15,5	;volatile
  3285  07BB  0008               	return
  3286                           
  3287                           ;main.c: 70:     u8_RxData = EUSART1_Read();
  3288  07BC  3186  26C5  3187   	fcall	_EUSART1_Read
  3289  07BF  00FA               	movwf	??_v_uart_receive
  3290  07C0  087A               	movf	??_v_uart_receive,w
  3291  07C1  00F7               	movwf	_u8_RxData	;volatile
  3292                           
  3293                           ;main.c: 71:     if (u8_RxData == 0xAA) {
  3294  07C2  30AA               	movlw	170
  3295  07C3  0677               	xorwf	_u8_RxData,w	;volatile
  3296  07C4  1D03               	btfss	3,2
  3297  07C5  2FD4               	goto	l1349
  3298                           
  3299                           ;main.c: 72:         u8_Index = 0;
  3300  07C6  01F9               	clrf	_u8_Index
  3301                           
  3302                           ;main.c: 73:         u8_Rx_DataBuff [u8_Index] = u8_RxData;
  3303  07C7  0877               	movf	_u8_RxData,w	;volatile
  3304  07C8  00FA               	movwf	??_v_uart_receive
  3305  07C9  0879               	movf	_u8_Index,w
  3306  07CA  3E2A               	addlw	(low (_u8_Rx_DataBuff| 0))& (0+255)
  3307  07CB  0086               	movwf	6
  3308  07CC  0187               	clrf	7
  3309  07CD  087A               	movf	??_v_uart_receive,w
  3310  07CE  0081               	movwf	1
  3311                           
  3312                           ;main.c: 74:         u8_Index++;
  3313  07CF  3001               	movlw	1
  3314  07D0  00FA               	movwf	??_v_uart_receive
  3315  07D1  087A               	movf	??_v_uart_receive,w
  3316  07D2  07F9               	addwf	_u8_Index,f
  3317                           
  3318                           ;main.c: 75:     } else {
  3319  07D3  0008               	return
  3320  07D4                     l1349:	
  3321                           
  3322                           ;main.c: 76:         u8_Rx_DataBuff [u8_Index] = u8_RxData;
  3323  07D4  0877               	movf	_u8_RxData,w	;volatile
  3324  07D5  00FA               	movwf	??_v_uart_receive
  3325  07D6  0879               	movf	_u8_Index,w
  3326  07D7  3E2A               	addlw	(low (_u8_Rx_DataBuff| 0))& (0+255)
  3327  07D8  0086               	movwf	6
  3328  07D9  0187               	clrf	7
  3329  07DA  087A               	movf	??_v_uart_receive,w
  3330  07DB  0081               	movwf	1
  3331                           
  3332                           ;main.c: 77:         u8_Index++;
  3333  07DC  3001               	movlw	1
  3334  07DD  00FA               	movwf	??_v_uart_receive
  3335  07DE  087A               	movf	??_v_uart_receive,w
  3336  07DF  07F9               	addwf	_u8_Index,f
  3337                           
  3338                           ;main.c: 78:         if (u8_Index >= 9) {
  3339  07E0  3009               	movlw	9
  3340  07E1  0279               	subwf	_u8_Index,w
  3341  07E2  1C03               	skipc
  3342  07E3  0008               	return
  3343                           
  3344                           ;main.c: 80:             u8_Compressor_PIN = u8_Rx_DataBuff[1];
  3345  07E4  0140               	movlb	0	; select bank0
  3346  07E5  082B               	movf	_u8_Rx_DataBuff+1,w	;volatile
  3347  07E6  00FA               	movwf	??_v_uart_receive
  3348  07E7  087A               	movf	??_v_uart_receive,w
  3349  07E8  00F6               	movwf	_u8_Compressor_PIN
  3350                           
  3351                           ;main.c: 83:             u8_Index = 0;
  3352  07E9  01F9               	clrf	_u8_Index
  3353                           
  3354                           ;main.c: 84:             u8_RxData = 0;
  3355  07EA  01F7               	clrf	_u8_RxData	;volatile
  3356                           
  3357                           ;main.c: 85:             u8_Tx_Status = 1;
  3358  07EB  01F8               	clrf	_u8_Tx_Status
  3359  07EC  0AF8               	incf	_u8_Tx_Status,f
  3360  07ED  0008               	return
  3361  07EE                     __end_of_v_uart_receive:	
  3362                           
  3363                           	psect	text4
  3364  06C5                     __ptext4:	
  3365 ;; *************** function _EUSART1_Read *****************
  3366 ;; Defined at:
  3367 ;;		line 112 in file "mcc_generated_files/eusart1.c"
  3368 ;; Parameters:    Size  Location     Type
  3369 ;;		None
  3370 ;; Auto vars:     Size  Location     Type
  3371 ;;		None
  3372 ;; Return value:  Size  Location     Type
  3373 ;;                  1    wreg      unsigned char 
  3374 ;; Registers used:
  3375 ;;		wreg, status,2
  3376 ;; Tracked objects:
  3377 ;;		On entry : 0/0
  3378 ;;		On exit  : 0/0
  3379 ;;		Unchanged: 0/0
  3380 ;; Data sizes:     COMMON   BANK0   BANK1   BANK2   BANK3   BANK4   BANK5   BANK6
  3381 ;;      Params:         0       0       0       0       0       0       0       0
  3382 ;;      Locals:         0       0       0       0       0       0       0       0
  3383 ;;      Temps:          0       0       0       0       0       0       0       0
  3384 ;;      Totals:         0       0       0       0       0       0       0       0
  3385 ;;Total ram usage:        0 bytes
  3386 ;; Hardware stack levels used:    1
  3387 ;; This function calls:
  3388 ;;		Nothing
  3389 ;; This function is called by:
  3390 ;;		_v_uart_receive
  3391 ;; This function uses a non-reentrant model
  3392 ;;
  3393                           
  3394                           
  3395                           ;psect for function _EUSART1_Read
  3396  06C5                     _EUSART1_Read:	
  3397  06C5                     l321:	
  3398                           ;mcc_generated_files/eusart1.c: 115:     {;mcc_generated_files/eusart1.c: 116:     }
  3399                           
  3400                           ;incstack = 0
  3401                           ; Regs used in _EUSART1_Read: [wreg+status,2]
  3402                           
  3403                           
  3404                           ;mcc_generated_files/eusart1.c: 114:     while(!PIR3bits.RC1IF)
  3405  06C5  014E               	movlb	14	; select bank14
  3406  06C6  1E8F               	btfss	15,5	;volatile
  3407  06C7  2EC5               	goto	l321
  3408                           
  3409                           ;mcc_generated_files/eusart1.c: 118:     eusart1RxLastError.status = 0;
  3410  06C8  01F0               	clrf	_eusart1RxLastError	;volatile
  3411                           
  3412                           ;mcc_generated_files/eusart1.c: 120:     if(1 == RC1STAbits.OERR)
  3413  06C9  0142               	movlb	2	; select bank2
  3414  06CA  1C9D               	btfss	29,1	;volatile
  3415  06CB  2ECE               	goto	l1307
  3416                           
  3417                           ;mcc_generated_files/eusart1.c: 121:     {;mcc_generated_files/eusart1.c: 124:         R
      +                          C1STAbits.CREN = 0;
  3418  06CC  121D               	bcf	29,4	;volatile
  3419                           
  3420                           ;mcc_generated_files/eusart1.c: 125:         RC1STAbits.CREN = 1;
  3421  06CD  161D               	bsf	29,4	;volatile
  3422  06CE                     l1307:	
  3423                           
  3424                           ;mcc_generated_files/eusart1.c: 128:     return RC1REG;
  3425  06CE  0819               	movf	25,w	;volatile
  3426  06CF  0008               	return
  3427  06D0                     __end_of_EUSART1_Read:	
  3428                           
  3429                           	psect	text5
  3430  06EA                     __ptext5:	
  3431 ;; *************** function _SYSTEM_Initialize *****************
  3432 ;; Defined at:
  3433 ;;		line 50 in file "mcc_generated_files/mcc.c"
  3434 ;; Parameters:    Size  Location     Type
  3435 ;;		None
  3436 ;; Auto vars:     Size  Location     Type
  3437 ;;		None
  3438 ;; Return value:  Size  Location     Type
  3439 ;;                  1    wreg      void 
  3440 ;; Registers used:
  3441 ;;		wreg, status,2, status,0, pclath, cstack
  3442 ;; Tracked objects:
  3443 ;;		On entry : 0/0
  3444 ;;		On exit  : 0/0
  3445 ;;		Unchanged: 0/0
  3446 ;; Data sizes:     COMMON   BANK0   BANK1   BANK2   BANK3   BANK4   BANK5   BANK6
  3447 ;;      Params:         0       0       0       0       0       0       0       0
  3448 ;;      Locals:         0       0       0       0       0       0       0       0
  3449 ;;      Temps:          0       0       0       0       0       0       0       0
  3450 ;;      Totals:         0       0       0       0       0       0       0       0
  3451 ;;Total ram usage:        0 bytes
  3452 ;; Hardware stack levels used:    1
  3453 ;; Hardware stack levels required when called:    2
  3454 ;; This function calls:
  3455 ;;		_ADC_Initialize
  3456 ;;		_EUSART1_Initialize
  3457 ;;		_EUSART2_Initialize
  3458 ;;		_OSCILLATOR_Initialize
  3459 ;;		_PIN_MANAGER_Initialize
  3460 ;;		_PMD_Initialize
  3461 ;;		_PWM4_Initialize
  3462 ;;		_TMR2_Initialize
  3463 ;; This function is called by:
  3464 ;;		_main
  3465 ;; This function uses a non-reentrant model
  3466 ;;
  3467                           
  3468                           
  3469                           ;psect for function _SYSTEM_Initialize
  3470  06EA                     _SYSTEM_Initialize:	
  3471                           
  3472                           ;mcc_generated_files/mcc.c: 52:     PMD_Initialize();
  3473                           
  3474                           ;incstack = 0
  3475                           ; Regs used in _SYSTEM_Initialize: [wreg+status,2+status,0+pclath+cstack]
  3476  06EA  3186  26AD  3186   	fcall	_PMD_Initialize
  3477                           
  3478                           ;mcc_generated_files/mcc.c: 53:     PIN_MANAGER_Initialize();
  3479  06ED  3187  2765  3186   	fcall	_PIN_MANAGER_Initialize
  3480                           
  3481                           ;mcc_generated_files/mcc.c: 54:     OSCILLATOR_Initialize();
  3482  06F0  3186  26D0  3186   	fcall	_OSCILLATOR_Initialize
  3483                           
  3484                           ;mcc_generated_files/mcc.c: 55:     ADC_Initialize();
  3485  06F3  3186  26A5  3186   	fcall	_ADC_Initialize
  3486                           
  3487                           ;mcc_generated_files/mcc.c: 56:     PWM4_Initialize();
  3488  06F6  3186  26B5  3186   	fcall	_PWM4_Initialize
  3489                           
  3490                           ;mcc_generated_files/mcc.c: 57:     TMR2_Initialize();
  3491  06F9  3186  26DC  3186   	fcall	_TMR2_Initialize
  3492                           
  3493                           ;mcc_generated_files/mcc.c: 58:     EUSART1_Initialize();
  3494  06FC  3187  2702  3186   	fcall	_EUSART1_Initialize
  3495                           
  3496                           ;mcc_generated_files/mcc.c: 59:     EUSART2_Initialize();
  3497  06FF  3187  2723         	fcall	_EUSART2_Initialize
  3498  0701  0008               	return
  3499  0702                     __end_of_SYSTEM_Initialize:	
  3500                           
  3501                           	psect	text6
  3502  06DC                     __ptext6:	
  3503 ;; *************** function _TMR2_Initialize *****************
  3504 ;; Defined at:
  3505 ;;		line 62 in file "mcc_generated_files/tmr2.c"
  3506 ;; Parameters:    Size  Location     Type
  3507 ;;		None
  3508 ;; Auto vars:     Size  Location     Type
  3509 ;;		None
  3510 ;; Return value:  Size  Location     Type
  3511 ;;                  1    wreg      void 
  3512 ;; Registers used:
  3513 ;;		wreg, status,2
  3514 ;; Tracked objects:
  3515 ;;		On entry : 0/0
  3516 ;;		On exit  : 0/0
  3517 ;;		Unchanged: 0/0
  3518 ;; Data sizes:     COMMON   BANK0   BANK1   BANK2   BANK3   BANK4   BANK5   BANK6
  3519 ;;      Params:         0       0       0       0       0       0       0       0
  3520 ;;      Locals:         0       0       0       0       0       0       0       0
  3521 ;;      Temps:          0       0       0       0       0       0       0       0
  3522 ;;      Totals:         0       0       0       0       0       0       0       0
  3523 ;;Total ram usage:        0 bytes
  3524 ;; Hardware stack levels used:    1
  3525 ;; This function calls:
  3526 ;;		Nothing
  3527 ;; This function is called by:
  3528 ;;		_SYSTEM_Initialize
  3529 ;; This function uses a non-reentrant model
  3530 ;;
  3531                           
  3532                           
  3533                           ;psect for function _TMR2_Initialize
  3534  06DC                     _TMR2_Initialize:	
  3535                           
  3536                           ;mcc_generated_files/tmr2.c: 67:     T2CLKCON = 0x01;
  3537                           
  3538                           ;incstack = 0
  3539                           ; Regs used in _TMR2_Initialize: [wreg+status,2]
  3540  06DC  3001               	movlw	1
  3541  06DD  0145               	movlb	5	; select bank5
  3542  06DE  0090               	movwf	16	;volatile
  3543                           
  3544                           ;mcc_generated_files/tmr2.c: 70:     T2HLT = 0x00;
  3545  06DF  018F               	clrf	15	;volatile
  3546                           
  3547                           ;mcc_generated_files/tmr2.c: 73:     T2RST = 0x00;
  3548  06E0  0191               	clrf	17	;volatile
  3549                           
  3550                           ;mcc_generated_files/tmr2.c: 76:     T2PR = 0xF9;
  3551  06E1  30F9               	movlw	249
  3552  06E2  008D               	movwf	13	;volatile
  3553                           
  3554                           ;mcc_generated_files/tmr2.c: 79:     T2TMR = 0x00;
  3555  06E3  018C               	clrf	12	;volatile
  3556                           
  3557                           ;mcc_generated_files/tmr2.c: 82:     PIR4bits.TMR2IF = 0;
  3558  06E4  014E               	movlb	14	; select bank14
  3559  06E5  1090               	bcf	16,1	;volatile
  3560                           
  3561                           ;mcc_generated_files/tmr2.c: 85:     T2CON = 0xA0;
  3562  06E6  30A0               	movlw	160
  3563  06E7  0145               	movlb	5	; select bank5
  3564  06E8  008E               	movwf	14	;volatile
  3565  06E9  0008               	return
  3566  06EA                     __end_of_TMR2_Initialize:	
  3567                           
  3568                           	psect	text7
  3569  06B5                     __ptext7:	
  3570 ;; *************** function _PWM4_Initialize *****************
  3571 ;; Defined at:
  3572 ;;		line 58 in file "mcc_generated_files/pwm4.c"
  3573 ;; Parameters:    Size  Location     Type
  3574 ;;		None
  3575 ;; Auto vars:     Size  Location     Type
  3576 ;;		None
  3577 ;; Return value:  Size  Location     Type
  3578 ;;                  1    wreg      void 
  3579 ;; Registers used:
  3580 ;;		wreg
  3581 ;; Tracked objects:
  3582 ;;		On entry : 0/0
  3583 ;;		On exit  : 0/0
  3584 ;;		Unchanged: 0/0
  3585 ;; Data sizes:     COMMON   BANK0   BANK1   BANK2   BANK3   BANK4   BANK5   BANK6
  3586 ;;      Params:         0       0       0       0       0       0       0       0
  3587 ;;      Locals:         0       0       0       0       0       0       0       0
  3588 ;;      Temps:          0       0       0       0       0       0       0       0
  3589 ;;      Totals:         0       0       0       0       0       0       0       0
  3590 ;;Total ram usage:        0 bytes
  3591 ;; Hardware stack levels used:    1
  3592 ;; This function calls:
  3593 ;;		Nothing
  3594 ;; This function is called by:
  3595 ;;		_SYSTEM_Initialize
  3596 ;; This function uses a non-reentrant model
  3597 ;;
  3598                           
  3599                           
  3600                           ;psect for function _PWM4_Initialize
  3601  06B5                     _PWM4_Initialize:	
  3602                           
  3603                           ;mcc_generated_files/pwm4.c: 62:     PWM4CON = 0x80;
  3604                           
  3605                           ;incstack = 0
  3606                           ; Regs used in _PWM4_Initialize: [wreg]
  3607  06B5  3080               	movlw	128
  3608  06B6  0146               	movlb	6	; select bank6
  3609  06B7  009A               	movwf	26	;volatile
  3610                           
  3611                           ;mcc_generated_files/pwm4.c: 65:     PWM4DCH = 0x7C;
  3612  06B8  307C               	movlw	124
  3613  06B9  0099               	movwf	25	;volatile
  3614                           
  3615                           ;mcc_generated_files/pwm4.c: 68:     PWM4DCL = 0xC0;
  3616  06BA  30C0               	movlw	192
  3617  06BB  0098               	movwf	24	;volatile
  3618  06BC  0008               	return
  3619  06BD                     __end_of_PWM4_Initialize:	
  3620                           
  3621                           	psect	text8
  3622  06AD                     __ptext8:	
  3623 ;; *************** function _PMD_Initialize *****************
  3624 ;; Defined at:
  3625 ;;		line 82 in file "mcc_generated_files/mcc.c"
  3626 ;; Parameters:    Size  Location     Type
  3627 ;;		None
  3628 ;; Auto vars:     Size  Location     Type
  3629 ;;		None
  3630 ;; Return value:  Size  Location     Type
  3631 ;;                  1    wreg      void 
  3632 ;; Registers used:
  3633 ;;		status,2
  3634 ;; Tracked objects:
  3635 ;;		On entry : 0/0
  3636 ;;		On exit  : 0/0
  3637 ;;		Unchanged: 0/0
  3638 ;; Data sizes:     COMMON   BANK0   BANK1   BANK2   BANK3   BANK4   BANK5   BANK6
  3639 ;;      Params:         0       0       0       0       0       0       0       0
  3640 ;;      Locals:         0       0       0       0       0       0       0       0
  3641 ;;      Temps:          0       0       0       0       0       0       0       0
  3642 ;;      Totals:         0       0       0       0       0       0       0       0
  3643 ;;Total ram usage:        0 bytes
  3644 ;; Hardware stack levels used:    1
  3645 ;; This function calls:
  3646 ;;		Nothing
  3647 ;; This function is called by:
  3648 ;;		_SYSTEM_Initialize
  3649 ;; This function uses a non-reentrant model
  3650 ;;
  3651                           
  3652                           
  3653                           ;psect for function _PMD_Initialize
  3654  06AD                     _PMD_Initialize:	
  3655                           
  3656                           ;mcc_generated_files/mcc.c: 85:     PMD0 = 0x00;
  3657                           
  3658                           ;incstack = 0
  3659                           ; Regs used in _PMD_Initialize: [status,2]
  3660  06AD  014F               	movlb	15	; select bank15
  3661  06AE  0196               	clrf	22	;volatile
  3662                           
  3663                           ;mcc_generated_files/mcc.c: 87:     PMD1 = 0x00;
  3664  06AF  0197               	clrf	23	;volatile
  3665                           
  3666                           ;mcc_generated_files/mcc.c: 89:     PMD2 = 0x00;
  3667  06B0  0198               	clrf	24	;volatile
  3668                           
  3669                           ;mcc_generated_files/mcc.c: 91:     PMD3 = 0x00;
  3670  06B1  0199               	clrf	25	;volatile
  3671                           
  3672                           ;mcc_generated_files/mcc.c: 93:     PMD4 = 0x00;
  3673  06B2  019A               	clrf	26	;volatile
  3674                           
  3675                           ;mcc_generated_files/mcc.c: 95:     PMD5 = 0x00;
  3676  06B3  019B               	clrf	27	;volatile
  3677  06B4  0008               	return
  3678  06B5                     __end_of_PMD_Initialize:	
  3679                           
  3680                           	psect	text9
  3681  0765                     __ptext9:	
  3682 ;; *************** function _PIN_MANAGER_Initialize *****************
  3683 ;; Defined at:
  3684 ;;		line 55 in file "mcc_generated_files/pin_manager.c"
  3685 ;; Parameters:    Size  Location     Type
  3686 ;;		None
  3687 ;; Auto vars:     Size  Location     Type
  3688 ;;		None
  3689 ;; Return value:  Size  Location     Type
  3690 ;;                  1    wreg      void 
  3691 ;; Registers used:
  3692 ;;		wreg, status,2
  3693 ;; Tracked objects:
  3694 ;;		On entry : 0/0
  3695 ;;		On exit  : 0/0
  3696 ;;		Unchanged: 0/0
  3697 ;; Data sizes:     COMMON   BANK0   BANK1   BANK2   BANK3   BANK4   BANK5   BANK6
  3698 ;;      Params:         0       0       0       0       0       0       0       0
  3699 ;;      Locals:         0       0       0       0       0       0       0       0
  3700 ;;      Temps:          0       0       0       0       0       0       0       0
  3701 ;;      Totals:         0       0       0       0       0       0       0       0
  3702 ;;Total ram usage:        0 bytes
  3703 ;; Hardware stack levels used:    1
  3704 ;; This function calls:
  3705 ;;		Nothing
  3706 ;; This function is called by:
  3707 ;;		_SYSTEM_Initialize
  3708 ;; This function uses a non-reentrant model
  3709 ;;
  3710                           
  3711                           
  3712                           ;psect for function _PIN_MANAGER_Initialize
  3713  0765                     _PIN_MANAGER_Initialize:	
  3714                           
  3715                           ;mcc_generated_files/pin_manager.c: 60:     LATA = 0x00;
  3716                           
  3717                           ;incstack = 0
  3718                           ; Regs used in _PIN_MANAGER_Initialize: [wreg+status,2]
  3719  0765  0140               	movlb	0	; select bank0
  3720  0766  0198               	clrf	24	;volatile
  3721                           
  3722                           ;mcc_generated_files/pin_manager.c: 61:     LATB = 0x00;
  3723  0767  0199               	clrf	25	;volatile
  3724                           
  3725                           ;mcc_generated_files/pin_manager.c: 62:     LATC = 0x00;
  3726  0768  019A               	clrf	26	;volatile
  3727                           
  3728                           ;mcc_generated_files/pin_manager.c: 67:     TRISA = 0x3F;
  3729  0769  303F               	movlw	63
  3730  076A  0092               	movwf	18	;volatile
  3731                           
  3732                           ;mcc_generated_files/pin_manager.c: 68:     TRISB = 0x50;
  3733  076B  3050               	movlw	80
  3734  076C  0093               	movwf	19	;volatile
  3735                           
  3736                           ;mcc_generated_files/pin_manager.c: 69:     TRISC = 0x59;
  3737  076D  3059               	movlw	89
  3738  076E  0094               	movwf	20	;volatile
  3739                           
  3740                           ;mcc_generated_files/pin_manager.c: 74:     ANSELC = 0xFE;
  3741  076F  30FE               	movlw	254
  3742  0770  017E               	movlb	62	; select bank62
  3743  0771  00CE               	movwf	78	;volatile
  3744                           
  3745                           ;mcc_generated_files/pin_manager.c: 75:     ANSELB = 0xA0;
  3746  0772  30A0               	movlw	160
  3747  0773  00C3               	movwf	67	;volatile
  3748                           
  3749                           ;mcc_generated_files/pin_manager.c: 76:     ANSELA = 0x37;
  3750  0774  3037               	movlw	55
  3751  0775  00B8               	movwf	56	;volatile
  3752                           
  3753                           ;mcc_generated_files/pin_manager.c: 81:     WPUB = 0x00;
  3754  0776  01C4               	clrf	68	;volatile
  3755                           
  3756                           ;mcc_generated_files/pin_manager.c: 82:     WPUA = 0x00;
  3757  0777  01B9               	clrf	57	;volatile
  3758                           
  3759                           ;mcc_generated_files/pin_manager.c: 83:     WPUC = 0x00;
  3760  0778  01CF               	clrf	79	;volatile
  3761                           
  3762                           ;mcc_generated_files/pin_manager.c: 88:     ODCONA = 0x00;
  3763  0779  01BA               	clrf	58	;volatile
  3764                           
  3765                           ;mcc_generated_files/pin_manager.c: 89:     ODCONB = 0x00;
  3766  077A  01C5               	clrf	69	;volatile
  3767                           
  3768                           ;mcc_generated_files/pin_manager.c: 90:     ODCONC = 0x00;
  3769  077B  01D0               	clrf	80	;volatile
  3770                           
  3771                           ;mcc_generated_files/pin_manager.c: 95:     SLRCONA = 0x3F;
  3772  077C  303F               	movlw	63
  3773  077D  00BB               	movwf	59	;volatile
  3774                           
  3775                           ;mcc_generated_files/pin_manager.c: 96:     SLRCONB = 0x00;
  3776  077E  01C6               	clrf	70	;volatile
  3777                           
  3778                           ;mcc_generated_files/pin_manager.c: 97:     SLRCONC = 0x3F;
  3779  077F  303F               	movlw	63
  3780  0780  00D1               	movwf	81	;volatile
  3781                           
  3782                           ;mcc_generated_files/pin_manager.c: 106:     RB7PPS = 0x0C;
  3783  0781  300C               	movlw	12
  3784  0782  009F               	movwf	31	;volatile
  3785                           
  3786                           ;mcc_generated_files/pin_manager.c: 107:     RB5PPS = 0x11;
  3787  0783  3011               	movlw	17
  3788  0784  009D               	movwf	29	;volatile
  3789                           
  3790                           ;mcc_generated_files/pin_manager.c: 108:     RC2PPS = 0x0F;
  3791  0785  300F               	movlw	15
  3792  0786  00A2               	movwf	34	;volatile
  3793                           
  3794                           ;mcc_generated_files/pin_manager.c: 109:     RX2DTPPS = 0x0E;
  3795  0787  300E               	movlw	14
  3796  0788  017D               	movlb	61	; select bank61
  3797  0789  00CD               	movwf	77	;volatile
  3798                           
  3799                           ;mcc_generated_files/pin_manager.c: 110:     RX1DTPPS = 0x0C;
  3800  078A  300C               	movlw	12
  3801  078B  00CB               	movwf	75	;volatile
  3802  078C  0008               	return
  3803  078D                     __end_of_PIN_MANAGER_Initialize:	
  3804                           
  3805                           	psect	text10
  3806  06D0                     __ptext10:	
  3807 ;; *************** function _OSCILLATOR_Initialize *****************
  3808 ;; Defined at:
  3809 ;;		line 62 in file "mcc_generated_files/mcc.c"
  3810 ;; Parameters:    Size  Location     Type
  3811 ;;		None
  3812 ;; Auto vars:     Size  Location     Type
  3813 ;;		None
  3814 ;; Return value:  Size  Location     Type
  3815 ;;                  1    wreg      void 
  3816 ;; Registers used:
  3817 ;;		wreg, status,2
  3818 ;; Tracked objects:
  3819 ;;		On entry : 0/0
  3820 ;;		On exit  : 0/0
  3821 ;;		Unchanged: 0/0
  3822 ;; Data sizes:     COMMON   BANK0   BANK1   BANK2   BANK3   BANK4   BANK5   BANK6
  3823 ;;      Params:         0       0       0       0       0       0       0       0
  3824 ;;      Locals:         0       0       0       0       0       0       0       0
  3825 ;;      Temps:          0       0       0       0       0       0       0       0
  3826 ;;      Totals:         0       0       0       0       0       0       0       0
  3827 ;;Total ram usage:        0 bytes
  3828 ;; Hardware stack levels used:    1
  3829 ;; This function calls:
  3830 ;;		Nothing
  3831 ;; This function is called by:
  3832 ;;		_SYSTEM_Initialize
  3833 ;; This function uses a non-reentrant model
  3834 ;;
  3835                           
  3836                           
  3837                           ;psect for function _OSCILLATOR_Initialize
  3838  06D0                     _OSCILLATOR_Initialize:	
  3839                           
  3840                           ;mcc_generated_files/mcc.c: 65:     OSCCON1 = 0x10;
  3841                           
  3842                           ;incstack = 0
  3843                           ; Regs used in _OSCILLATOR_Initialize: [wreg+status,2]
  3844  06D0  3010               	movlw	16
  3845  06D1  0151               	movlb	17	; select bank17
  3846  06D2  008D               	movwf	13	;volatile
  3847                           
  3848                           ;mcc_generated_files/mcc.c: 67:     OSCCON3 = 0x00;
  3849  06D3  018F               	clrf	15	;volatile
  3850                           
  3851                           ;mcc_generated_files/mcc.c: 69:     OSCEN = 0x00;
  3852  06D4  0191               	clrf	17	;volatile
  3853                           
  3854                           ;mcc_generated_files/mcc.c: 71:     OSCFRQ = 0x03;
  3855  06D5  3003               	movlw	3
  3856  06D6  0093               	movwf	19	;volatile
  3857                           
  3858                           ;mcc_generated_files/mcc.c: 73:     OSCSTAT = 0x00;
  3859  06D7  0190               	clrf	16	;volatile
  3860                           
  3861                           ;mcc_generated_files/mcc.c: 75:     OSCTUNE = 0x00;
  3862  06D8  0192               	clrf	18	;volatile
  3863  06D9                     l397:	
  3864                           ;mcc_generated_files/mcc.c: 78:     {;mcc_generated_files/mcc.c: 79:     }
  3865                           
  3866                           
  3867                           ;mcc_generated_files/mcc.c: 77:     while(PLLR == 0)
  3868  06D9  1810               	btfsc	16,0	;volatile
  3869  06DA  0008               	return
  3870  06DB  2ED9               	goto	l397
  3871  06DC                     __end_of_OSCILLATOR_Initialize:	
  3872                           
  3873                           	psect	text11
  3874  0723                     __ptext11:	
  3875 ;; *************** function _EUSART2_Initialize *****************
  3876 ;; Defined at:
  3877 ;;		line 65 in file "mcc_generated_files/eusart2.c"
  3878 ;; Parameters:    Size  Location     Type
  3879 ;;		None
  3880 ;; Auto vars:     Size  Location     Type
  3881 ;;		None
  3882 ;; Return value:  Size  Location     Type
  3883 ;;                  1    wreg      void 
  3884 ;; Registers used:
  3885 ;;		wreg, status,2, status,0, pclath, cstack
  3886 ;; Tracked objects:
  3887 ;;		On entry : 0/0
  3888 ;;		On exit  : 0/0
  3889 ;;		Unchanged: 0/0
  3890 ;; Data sizes:     COMMON   BANK0   BANK1   BANK2   BANK3   BANK4   BANK5   BANK6
  3891 ;;      Params:         0       0       0       0       0       0       0       0
  3892 ;;      Locals:         0       0       0       0       0       0       0       0
  3893 ;;      Temps:          0       0       0       0       0       0       0       0
  3894 ;;      Totals:         0       0       0       0       0       0       0       0
  3895 ;;Total ram usage:        0 bytes
  3896 ;; Hardware stack levels used:    1
  3897 ;; Hardware stack levels required when called:    1
  3898 ;; This function calls:
  3899 ;;		_EUSART2_SetErrorHandler
  3900 ;;		_EUSART2_SetFramingErrorHandler
  3901 ;;		_EUSART2_SetOverrunErrorHandler
  3902 ;; This function is called by:
  3903 ;;		_SYSTEM_Initialize
  3904 ;; This function uses a non-reentrant model
  3905 ;;
  3906                           
  3907                           
  3908                           ;psect for function _EUSART2_Initialize
  3909  0723                     _EUSART2_Initialize:	
  3910                           
  3911                           ;mcc_generated_files/eusart2.c: 70:     BAUD2CON = 0x08;
  3912                           
  3913                           ;incstack = 0
  3914                           ; Regs used in _EUSART2_Initialize: [wreg+status,2+status,0+pclath+cstack]
  3915  0723  3008               	movlw	8
  3916  0724  0154               	movlb	20	; select bank20
  3917  0725  009F               	movwf	31	;volatile
  3918                           
  3919                           ;mcc_generated_files/eusart2.c: 73:     RC2STA = 0x90;
  3920  0726  3090               	movlw	144
  3921  0727  009D               	movwf	29	;volatile
  3922                           
  3923                           ;mcc_generated_files/eusart2.c: 76:     TX2STA = 0x24;
  3924  0728  3024               	movlw	36
  3925  0729  009E               	movwf	30	;volatile
  3926                           
  3927                           ;mcc_generated_files/eusart2.c: 79:     SP2BRGL = 0xA0;
  3928  072A  30A0               	movlw	160
  3929  072B  009B               	movwf	27	;volatile
  3930                           
  3931                           ;mcc_generated_files/eusart2.c: 82:     SP2BRGH = 0x01;
  3932  072C  3001               	movlw	1
  3933  072D  009C               	movwf	28	;volatile
  3934                           
  3935                           ;mcc_generated_files/eusart2.c: 85:     EUSART2_SetFramingErrorHandler(EUSART2_DefaultFr
      +                          amingErrorHandler);
  3936  072E  3000               	movlw	0
  3937  072F  00FA               	movwf	EUSART2_SetFramingErrorHandler@interruptHandler
  3938  0730  3000               	movlw	0
  3939  0731  00FB               	movwf	EUSART2_SetFramingErrorHandler@interruptHandler+1
  3940  0732  3186  2693  3187   	fcall	_EUSART2_SetFramingErrorHandler
  3941                           
  3942                           ;mcc_generated_files/eusart2.c: 86:     EUSART2_SetOverrunErrorHandler(EUSART2_DefaultOv
      +                          errunErrorHandler);
  3943  0735  3000               	movlw	0
  3944  0736  00FA               	movwf	EUSART2_SetOverrunErrorHandler@interruptHandler
  3945  0737  3000               	movlw	0
  3946  0738  00FB               	movwf	EUSART2_SetOverrunErrorHandler@interruptHandler+1
  3947  0739  3186  2699  3187   	fcall	_EUSART2_SetOverrunErrorHandler
  3948                           
  3949                           ;mcc_generated_files/eusart2.c: 87:     EUSART2_SetErrorHandler(EUSART2_DefaultErrorHand
      +                          ler);
  3950  073C  3000               	movlw	0
  3951  073D  00FA               	movwf	EUSART2_SetErrorHandler@interruptHandler
  3952  073E  3000               	movlw	0
  3953  073F  00FB               	movwf	EUSART2_SetErrorHandler@interruptHandler+1
  3954  0740  3186  268D         	fcall	_EUSART2_SetErrorHandler
  3955                           
  3956                           ;mcc_generated_files/eusart2.c: 89:     eusart2RxLastError.status = 0;
  3957  0742  01F1               	clrf	_eusart2RxLastError	;volatile
  3958  0743  0008               	return
  3959  0744                     __end_of_EUSART2_Initialize:	
  3960                           
  3961                           	psect	text12
  3962  0699                     __ptext12:	
  3963 ;; *************** function _EUSART2_SetOverrunErrorHandler *****************
  3964 ;; Defined at:
  3965 ;;		line 160 in file "mcc_generated_files/eusart2.c"
  3966 ;; Parameters:    Size  Location     Type
  3967 ;;  interruptHan    2    0[COMMON] PTR FTN()void 
  3968 ;;		 -> EUSART2_DefaultOverrunErrorHandler(1), 
  3969 ;; Auto vars:     Size  Location     Type
  3970 ;;		None
  3971 ;; Return value:  Size  Location     Type
  3972 ;;                  1    wreg      void 
  3973 ;; Registers used:
  3974 ;;		wreg
  3975 ;; Tracked objects:
  3976 ;;		On entry : 0/0
  3977 ;;		On exit  : 0/0
  3978 ;;		Unchanged: 0/0
  3979 ;; Data sizes:     COMMON   BANK0   BANK1   BANK2   BANK3   BANK4   BANK5   BANK6
  3980 ;;      Params:         2       0       0       0       0       0       0       0
  3981 ;;      Locals:         0       0       0       0       0       0       0       0
  3982 ;;      Temps:          0       0       0       0       0       0       0       0
  3983 ;;      Totals:         2       0       0       0       0       0       0       0
  3984 ;;Total ram usage:        2 bytes
  3985 ;; Hardware stack levels used:    1
  3986 ;; This function calls:
  3987 ;;		Nothing
  3988 ;; This function is called by:
  3989 ;;		_EUSART2_Initialize
  3990 ;; This function uses a non-reentrant model
  3991 ;;
  3992                           
  3993                           
  3994                           ;psect for function _EUSART2_SetOverrunErrorHandler
  3995  0699                     _EUSART2_SetOverrunErrorHandler:	
  3996                           
  3997                           ;mcc_generated_files/eusart2.c: 161:     EUSART2_OverrunErrorHandler = interruptHandler;
  3998                           
  3999                           ;incstack = 0
  4000                           ; Regs used in _EUSART2_SetOverrunErrorHandler: [wreg]
  4001  0699  087B               	movf	EUSART2_SetOverrunErrorHandler@interruptHandler+1,w
  4002  069A  0140               	movlb	0	; select bank0
  4003  069B  00BD               	movwf	_EUSART2_OverrunErrorHandler+1
  4004  069C  087A               	movf	EUSART2_SetOverrunErrorHandler@interruptHandler,w
  4005  069D  00BC               	movwf	_EUSART2_OverrunErrorHandler
  4006  069E  0008               	return
  4007  069F                     __end_of_EUSART2_SetOverrunErrorHandler:	
  4008                           
  4009                           	psect	text13
  4010  0693                     __ptext13:	
  4011 ;; *************** function _EUSART2_SetFramingErrorHandler *****************
  4012 ;; Defined at:
  4013 ;;		line 156 in file "mcc_generated_files/eusart2.c"
  4014 ;; Parameters:    Size  Location     Type
  4015 ;;  interruptHan    2    0[COMMON] PTR FTN()void 
  4016 ;;		 -> EUSART2_DefaultFramingErrorHandler(1), 
  4017 ;; Auto vars:     Size  Location     Type
  4018 ;;		None
  4019 ;; Return value:  Size  Location     Type
  4020 ;;                  1    wreg      void 
  4021 ;; Registers used:
  4022 ;;		wreg
  4023 ;; Tracked objects:
  4024 ;;		On entry : 0/0
  4025 ;;		On exit  : 0/0
  4026 ;;		Unchanged: 0/0
  4027 ;; Data sizes:     COMMON   BANK0   BANK1   BANK2   BANK3   BANK4   BANK5   BANK6
  4028 ;;      Params:         2       0       0       0       0       0       0       0
  4029 ;;      Locals:         0       0       0       0       0       0       0       0
  4030 ;;      Temps:          0       0       0       0       0       0       0       0
  4031 ;;      Totals:         2       0       0       0       0       0       0       0
  4032 ;;Total ram usage:        2 bytes
  4033 ;; Hardware stack levels used:    1
  4034 ;; This function calls:
  4035 ;;		Nothing
  4036 ;; This function is called by:
  4037 ;;		_EUSART2_Initialize
  4038 ;; This function uses a non-reentrant model
  4039 ;;
  4040                           
  4041                           
  4042                           ;psect for function _EUSART2_SetFramingErrorHandler
  4043  0693                     _EUSART2_SetFramingErrorHandler:	
  4044                           
  4045                           ;mcc_generated_files/eusart2.c: 157:     EUSART2_FramingErrorHandler = interruptHandler;
  4046                           
  4047                           ;incstack = 0
  4048                           ; Regs used in _EUSART2_SetFramingErrorHandler: [wreg]
  4049  0693  087B               	movf	EUSART2_SetFramingErrorHandler@interruptHandler+1,w
  4050  0694  0140               	movlb	0	; select bank0
  4051  0695  00BF               	movwf	_EUSART2_FramingErrorHandler+1
  4052  0696  087A               	movf	EUSART2_SetFramingErrorHandler@interruptHandler,w
  4053  0697  00BE               	movwf	_EUSART2_FramingErrorHandler
  4054  0698  0008               	return
  4055  0699                     __end_of_EUSART2_SetFramingErrorHandler:	
  4056                           
  4057                           	psect	text14
  4058  068D                     __ptext14:	
  4059 ;; *************** function _EUSART2_SetErrorHandler *****************
  4060 ;; Defined at:
  4061 ;;		line 164 in file "mcc_generated_files/eusart2.c"
  4062 ;; Parameters:    Size  Location     Type
  4063 ;;  interruptHan    2    0[COMMON] PTR FTN()void 
  4064 ;;		 -> EUSART2_DefaultErrorHandler(1), 
  4065 ;; Auto vars:     Size  Location     Type
  4066 ;;		None
  4067 ;; Return value:  Size  Location     Type
  4068 ;;                  1    wreg      void 
  4069 ;; Registers used:
  4070 ;;		wreg
  4071 ;; Tracked objects:
  4072 ;;		On entry : 0/0
  4073 ;;		On exit  : 0/0
  4074 ;;		Unchanged: 0/0
  4075 ;; Data sizes:     COMMON   BANK0   BANK1   BANK2   BANK3   BANK4   BANK5   BANK6
  4076 ;;      Params:         2       0       0       0       0       0       0       0
  4077 ;;      Locals:         0       0       0       0       0       0       0       0
  4078 ;;      Temps:          0       0       0       0       0       0       0       0
  4079 ;;      Totals:         2       0       0       0       0       0       0       0
  4080 ;;Total ram usage:        2 bytes
  4081 ;; Hardware stack levels used:    1
  4082 ;; This function calls:
  4083 ;;		Nothing
  4084 ;; This function is called by:
  4085 ;;		_EUSART2_Initialize
  4086 ;; This function uses a non-reentrant model
  4087 ;;
  4088                           
  4089                           
  4090                           ;psect for function _EUSART2_SetErrorHandler
  4091  068D                     _EUSART2_SetErrorHandler:	
  4092                           
  4093                           ;mcc_generated_files/eusart2.c: 165:     EUSART2_ErrorHandler = interruptHandler;
  4094                           
  4095                           ;incstack = 0
  4096                           ; Regs used in _EUSART2_SetErrorHandler: [wreg]
  4097  068D  087B               	movf	EUSART2_SetErrorHandler@interruptHandler+1,w
  4098  068E  0140               	movlb	0	; select bank0
  4099  068F  00BB               	movwf	_EUSART2_ErrorHandler+1
  4100  0690  087A               	movf	EUSART2_SetErrorHandler@interruptHandler,w
  4101  0691  00BA               	movwf	_EUSART2_ErrorHandler
  4102  0692  0008               	return
  4103  0693                     __end_of_EUSART2_SetErrorHandler:	
  4104                           
  4105                           	psect	text15
  4106  0702                     __ptext15:	
  4107 ;; *************** function _EUSART1_Initialize *****************
  4108 ;; Defined at:
  4109 ;;		line 65 in file "mcc_generated_files/eusart1.c"
  4110 ;; Parameters:    Size  Location     Type
  4111 ;;		None
  4112 ;; Auto vars:     Size  Location     Type
  4113 ;;		None
  4114 ;; Return value:  Size  Location     Type
  4115 ;;                  1    wreg      void 
  4116 ;; Registers used:
  4117 ;;		wreg, status,2, status,0, pclath, cstack
  4118 ;; Tracked objects:
  4119 ;;		On entry : 0/0
  4120 ;;		On exit  : 0/0
  4121 ;;		Unchanged: 0/0
  4122 ;; Data sizes:     COMMON   BANK0   BANK1   BANK2   BANK3   BANK4   BANK5   BANK6
  4123 ;;      Params:         0       0       0       0       0       0       0       0
  4124 ;;      Locals:         0       0       0       0       0       0       0       0
  4125 ;;      Temps:          0       0       0       0       0       0       0       0
  4126 ;;      Totals:         0       0       0       0       0       0       0       0
  4127 ;;Total ram usage:        0 bytes
  4128 ;; Hardware stack levels used:    1
  4129 ;; Hardware stack levels required when called:    1
  4130 ;; This function calls:
  4131 ;;		_EUSART1_SetErrorHandler
  4132 ;;		_EUSART1_SetFramingErrorHandler
  4133 ;;		_EUSART1_SetOverrunErrorHandler
  4134 ;; This function is called by:
  4135 ;;		_SYSTEM_Initialize
  4136 ;; This function uses a non-reentrant model
  4137 ;;
  4138                           
  4139                           
  4140                           ;psect for function _EUSART1_Initialize
  4141  0702                     _EUSART1_Initialize:	
  4142                           
  4143                           ;mcc_generated_files/eusart1.c: 70:     BAUD1CON = 0x08;
  4144                           
  4145                           ;incstack = 0
  4146                           ; Regs used in _EUSART1_Initialize: [wreg+status,2+status,0+pclath+cstack]
  4147  0702  3008               	movlw	8
  4148  0703  0142               	movlb	2	; select bank2
  4149  0704  009F               	movwf	31	;volatile
  4150                           
  4151                           ;mcc_generated_files/eusart1.c: 73:     RC1STA = 0x90;
  4152  0705  3090               	movlw	144
  4153  0706  009D               	movwf	29	;volatile
  4154                           
  4155                           ;mcc_generated_files/eusart1.c: 76:     TX1STA = 0x24;
  4156  0707  3024               	movlw	36
  4157  0708  009E               	movwf	30	;volatile
  4158                           
  4159                           ;mcc_generated_files/eusart1.c: 79:     SP1BRGL = 0xA0;
  4160  0709  30A0               	movlw	160
  4161  070A  009B               	movwf	27	;volatile
  4162                           
  4163                           ;mcc_generated_files/eusart1.c: 82:     SP1BRGH = 0x01;
  4164  070B  3001               	movlw	1
  4165  070C  009C               	movwf	28	;volatile
  4166                           
  4167                           ;mcc_generated_files/eusart1.c: 85:     EUSART1_SetFramingErrorHandler(EUSART1_DefaultFr
      +                          amingErrorHandler);
  4168  070D  3000               	movlw	0
  4169  070E  00FA               	movwf	EUSART1_SetFramingErrorHandler@interruptHandler
  4170  070F  3000               	movlw	0
  4171  0710  00FB               	movwf	EUSART1_SetFramingErrorHandler@interruptHandler+1
  4172  0711  3186  2681  3187   	fcall	_EUSART1_SetFramingErrorHandler
  4173                           
  4174                           ;mcc_generated_files/eusart1.c: 86:     EUSART1_SetOverrunErrorHandler(EUSART1_DefaultOv
      +                          errunErrorHandler);
  4175  0714  3000               	movlw	0
  4176  0715  00FA               	movwf	EUSART1_SetOverrunErrorHandler@interruptHandler
  4177  0716  3000               	movlw	0
  4178  0717  00FB               	movwf	EUSART1_SetOverrunErrorHandler@interruptHandler+1
  4179  0718  3186  2687  3187   	fcall	_EUSART1_SetOverrunErrorHandler
  4180                           
  4181                           ;mcc_generated_files/eusart1.c: 87:     EUSART1_SetErrorHandler(EUSART1_DefaultErrorHand
      +                          ler);
  4182  071B  3000               	movlw	0
  4183  071C  00FA               	movwf	EUSART1_SetErrorHandler@interruptHandler
  4184  071D  3000               	movlw	0
  4185  071E  00FB               	movwf	EUSART1_SetErrorHandler@interruptHandler+1
  4186  071F  3186  267B         	fcall	_EUSART1_SetErrorHandler
  4187                           
  4188                           ;mcc_generated_files/eusart1.c: 89:     eusart1RxLastError.status = 0;
  4189  0721  01F0               	clrf	_eusart1RxLastError	;volatile
  4190  0722  0008               	return
  4191  0723                     __end_of_EUSART1_Initialize:	
  4192                           
  4193                           	psect	text16
  4194  0687                     __ptext16:	
  4195 ;; *************** function _EUSART1_SetOverrunErrorHandler *****************
  4196 ;; Defined at:
  4197 ;;		line 160 in file "mcc_generated_files/eusart1.c"
  4198 ;; Parameters:    Size  Location     Type
  4199 ;;  interruptHan    2    0[COMMON] PTR FTN()void 
  4200 ;;		 -> EUSART1_DefaultOverrunErrorHandler(1), 
  4201 ;; Auto vars:     Size  Location     Type
  4202 ;;		None
  4203 ;; Return value:  Size  Location     Type
  4204 ;;                  1    wreg      void 
  4205 ;; Registers used:
  4206 ;;		wreg
  4207 ;; Tracked objects:
  4208 ;;		On entry : 0/0
  4209 ;;		On exit  : 0/0
  4210 ;;		Unchanged: 0/0
  4211 ;; Data sizes:     COMMON   BANK0   BANK1   BANK2   BANK3   BANK4   BANK5   BANK6
  4212 ;;      Params:         2       0       0       0       0       0       0       0
  4213 ;;      Locals:         0       0       0       0       0       0       0       0
  4214 ;;      Temps:          0       0       0       0       0       0       0       0
  4215 ;;      Totals:         2       0       0       0       0       0       0       0
  4216 ;;Total ram usage:        2 bytes
  4217 ;; Hardware stack levels used:    1
  4218 ;; This function calls:
  4219 ;;		Nothing
  4220 ;; This function is called by:
  4221 ;;		_EUSART1_Initialize
  4222 ;; This function uses a non-reentrant model
  4223 ;;
  4224                           
  4225                           
  4226                           ;psect for function _EUSART1_SetOverrunErrorHandler
  4227  0687                     _EUSART1_SetOverrunErrorHandler:	
  4228                           
  4229                           ;mcc_generated_files/eusart1.c: 161:     EUSART1_OverrunErrorHandler = interruptHandler;
  4230                           
  4231                           ;incstack = 0
  4232                           ; Regs used in _EUSART1_SetOverrunErrorHandler: [wreg]
  4233  0687  087B               	movf	EUSART1_SetOverrunErrorHandler@interruptHandler+1,w
  4234  0688  0140               	movlb	0	; select bank0
  4235  0689  00B7               	movwf	_EUSART1_OverrunErrorHandler+1
  4236  068A  087A               	movf	EUSART1_SetOverrunErrorHandler@interruptHandler,w
  4237  068B  00B6               	movwf	_EUSART1_OverrunErrorHandler
  4238  068C  0008               	return
  4239  068D                     __end_of_EUSART1_SetOverrunErrorHandler:	
  4240                           
  4241                           	psect	text17
  4242  0681                     __ptext17:	
  4243 ;; *************** function _EUSART1_SetFramingErrorHandler *****************
  4244 ;; Defined at:
  4245 ;;		line 156 in file "mcc_generated_files/eusart1.c"
  4246 ;; Parameters:    Size  Location     Type
  4247 ;;  interruptHan    2    0[COMMON] PTR FTN()void 
  4248 ;;		 -> EUSART1_DefaultFramingErrorHandler(1), 
  4249 ;; Auto vars:     Size  Location     Type
  4250 ;;		None
  4251 ;; Return value:  Size  Location     Type
  4252 ;;                  1    wreg      void 
  4253 ;; Registers used:
  4254 ;;		wreg
  4255 ;; Tracked objects:
  4256 ;;		On entry : 0/0
  4257 ;;		On exit  : 0/0
  4258 ;;		Unchanged: 0/0
  4259 ;; Data sizes:     COMMON   BANK0   BANK1   BANK2   BANK3   BANK4   BANK5   BANK6
  4260 ;;      Params:         2       0       0       0       0       0       0       0
  4261 ;;      Locals:         0       0       0       0       0       0       0       0
  4262 ;;      Temps:          0       0       0       0       0       0       0       0
  4263 ;;      Totals:         2       0       0       0       0       0       0       0
  4264 ;;Total ram usage:        2 bytes
  4265 ;; Hardware stack levels used:    1
  4266 ;; This function calls:
  4267 ;;		Nothing
  4268 ;; This function is called by:
  4269 ;;		_EUSART1_Initialize
  4270 ;; This function uses a non-reentrant model
  4271 ;;
  4272                           
  4273                           
  4274                           ;psect for function _EUSART1_SetFramingErrorHandler
  4275  0681                     _EUSART1_SetFramingErrorHandler:	
  4276                           
  4277                           ;mcc_generated_files/eusart1.c: 157:     EUSART1_FramingErrorHandler = interruptHandler;
  4278                           
  4279                           ;incstack = 0
  4280                           ; Regs used in _EUSART1_SetFramingErrorHandler: [wreg]
  4281  0681  087B               	movf	EUSART1_SetFramingErrorHandler@interruptHandler+1,w
  4282  0682  0140               	movlb	0	; select bank0
  4283  0683  00B9               	movwf	_EUSART1_FramingErrorHandler+1
  4284  0684  087A               	movf	EUSART1_SetFramingErrorHandler@interruptHandler,w
  4285  0685  00B8               	movwf	_EUSART1_FramingErrorHandler
  4286  0686  0008               	return
  4287  0687                     __end_of_EUSART1_SetFramingErrorHandler:	
  4288                           
  4289                           	psect	text18
  4290  067B                     __ptext18:	
  4291 ;; *************** function _EUSART1_SetErrorHandler *****************
  4292 ;; Defined at:
  4293 ;;		line 164 in file "mcc_generated_files/eusart1.c"
  4294 ;; Parameters:    Size  Location     Type
  4295 ;;  interruptHan    2    0[COMMON] PTR FTN()void 
  4296 ;;		 -> EUSART1_DefaultErrorHandler(1), 
  4297 ;; Auto vars:     Size  Location     Type
  4298 ;;		None
  4299 ;; Return value:  Size  Location     Type
  4300 ;;                  1    wreg      void 
  4301 ;; Registers used:
  4302 ;;		wreg
  4303 ;; Tracked objects:
  4304 ;;		On entry : 0/0
  4305 ;;		On exit  : 0/0
  4306 ;;		Unchanged: 0/0
  4307 ;; Data sizes:     COMMON   BANK0   BANK1   BANK2   BANK3   BANK4   BANK5   BANK6
  4308 ;;      Params:         2       0       0       0       0       0       0       0
  4309 ;;      Locals:         0       0       0       0       0       0       0       0
  4310 ;;      Temps:          0       0       0       0       0       0       0       0
  4311 ;;      Totals:         2       0       0       0       0       0       0       0
  4312 ;;Total ram usage:        2 bytes
  4313 ;; Hardware stack levels used:    1
  4314 ;; This function calls:
  4315 ;;		Nothing
  4316 ;; This function is called by:
  4317 ;;		_EUSART1_Initialize
  4318 ;; This function uses a non-reentrant model
  4319 ;;
  4320                           
  4321                           
  4322                           ;psect for function _EUSART1_SetErrorHandler
  4323  067B                     _EUSART1_SetErrorHandler:	
  4324                           
  4325                           ;mcc_generated_files/eusart1.c: 165:     EUSART1_ErrorHandler = interruptHandler;
  4326                           
  4327                           ;incstack = 0
  4328                           ; Regs used in _EUSART1_SetErrorHandler: [wreg]
  4329  067B  087B               	movf	EUSART1_SetErrorHandler@interruptHandler+1,w
  4330  067C  0140               	movlb	0	; select bank0
  4331  067D  00B5               	movwf	_EUSART1_ErrorHandler+1
  4332  067E  087A               	movf	EUSART1_SetErrorHandler@interruptHandler,w
  4333  067F  00B4               	movwf	_EUSART1_ErrorHandler
  4334  0680  0008               	return
  4335  0681                     __end_of_EUSART1_SetErrorHandler:	
  4336                           
  4337                           	psect	text19
  4338  06A5                     __ptext19:	
  4339 ;; *************** function _ADC_Initialize *****************
  4340 ;; Defined at:
  4341 ;;		line 65 in file "mcc_generated_files/adc.c"
  4342 ;; Parameters:    Size  Location     Type
  4343 ;;		None
  4344 ;; Auto vars:     Size  Location     Type
  4345 ;;		None
  4346 ;; Return value:  Size  Location     Type
  4347 ;;                  1    wreg      void 
  4348 ;; Registers used:
  4349 ;;		wreg, status,2
  4350 ;; Tracked objects:
  4351 ;;		On entry : 0/0
  4352 ;;		On exit  : 0/0
  4353 ;;		Unchanged: 0/0
  4354 ;; Data sizes:     COMMON   BANK0   BANK1   BANK2   BANK3   BANK4   BANK5   BANK6
  4355 ;;      Params:         0       0       0       0       0       0       0       0
  4356 ;;      Locals:         0       0       0       0       0       0       0       0
  4357 ;;      Temps:          0       0       0       0       0       0       0       0
  4358 ;;      Totals:         0       0       0       0       0       0       0       0
  4359 ;;Total ram usage:        0 bytes
  4360 ;; Hardware stack levels used:    1
  4361 ;; This function calls:
  4362 ;;		Nothing
  4363 ;; This function is called by:
  4364 ;;		_SYSTEM_Initialize
  4365 ;; This function uses a non-reentrant model
  4366 ;;
  4367                           
  4368                           
  4369                           ;psect for function _ADC_Initialize
  4370  06A5                     _ADC_Initialize:	
  4371                           
  4372                           ;mcc_generated_files/adc.c: 70:     ADCON0 = 0x01;
  4373                           
  4374                           ;incstack = 0
  4375                           ; Regs used in _ADC_Initialize: [wreg+status,2]
  4376  06A5  3001               	movlw	1
  4377  06A6  0141               	movlb	1	; select bank1
  4378  06A7  009D               	movwf	29	;volatile
  4379                           
  4380                           ;mcc_generated_files/adc.c: 73:     ADCON1 = 0x50;
  4381  06A8  3050               	movlw	80
  4382  06A9  009E               	movwf	30	;volatile
  4383                           
  4384                           ;mcc_generated_files/adc.c: 76:     ADRESL = 0x00;
  4385  06AA  019B               	clrf	27	;volatile
  4386                           
  4387                           ;mcc_generated_files/adc.c: 79:     ADRESH = 0x00;
  4388  06AB  019C               	clrf	28	;volatile
  4389  06AC  0008               	return
  4390  06AD                     __end_of_ADC_Initialize:	
  4391  007E                     btemp	set	126	;btemp
  4392  007E                     wtemp0	set	126


Data Sizes:
    Strings     0
    Constant    0
    Data        0
    BSS         42
    Persistent  32
    Stack       0

Auto Spaces:
    Space          Size  Autos    Used
    COMMON           14      3      13
    BANK0            80      0      32
    BANK1            80      0       0
    BANK2            80      0       0
    BANK3            80      0       0
    BANK4            80      0       0
    BANK5            80      0       0
    BANK6            16      0       0

Pointer List with Targets:

    EUSART1_SetErrorHandler@interruptHandler	PTR FTN()void  size(2) Largest target is 1
		 -> EUSART1_DefaultErrorHandler(), 

    EUSART1_ErrorHandler	PTR FTN()void  size(2) Largest target is 1
		 -> Absolute function(), EUSART1_DefaultErrorHandler(), 

    EUSART1_SetOverrunErrorHandler@interruptHandler	PTR FTN()void  size(2) Largest target is 1
		 -> EUSART1_DefaultOverrunErrorHandler(), 

    EUSART1_OverrunErrorHandler	PTR FTN()void  size(2) Largest target is 1
		 -> Absolute function(), EUSART1_DefaultOverrunErrorHandler(), 

    EUSART1_SetFramingErrorHandler@interruptHandler	PTR FTN()void  size(2) Largest target is 1
		 -> EUSART1_DefaultFramingErrorHandler(), 

    EUSART1_FramingErrorHandler	PTR FTN()void  size(2) Largest target is 1
		 -> Absolute function(), EUSART1_DefaultFramingErrorHandler(), 

    EUSART2_SetErrorHandler@interruptHandler	PTR FTN()void  size(2) Largest target is 1
		 -> EUSART2_DefaultErrorHandler(), 

    EUSART2_ErrorHandler	PTR FTN()void  size(2) Largest target is 1
		 -> Absolute function(), EUSART2_DefaultErrorHandler(), 

    EUSART2_SetOverrunErrorHandler@interruptHandler	PTR FTN()void  size(2) Largest target is 1
		 -> EUSART2_DefaultOverrunErrorHandler(), 

    EUSART2_OverrunErrorHandler	PTR FTN()void  size(2) Largest target is 1
		 -> Absolute function(), EUSART2_DefaultOverrunErrorHandler(), 

    EUSART2_SetFramingErrorHandler@interruptHandler	PTR FTN()void  size(2) Largest target is 1
		 -> EUSART2_DefaultFramingErrorHandler(), 

    EUSART2_FramingErrorHandler	PTR FTN()void  size(2) Largest target is 1
		 -> Absolute function(), EUSART2_DefaultFramingErrorHandler(), 


Critical Paths under _main in COMMON

    _main->_v_uart_send
    _v_uart_send->_EUSART1_Write
    _EUSART2_Initialize->_EUSART2_SetErrorHandler
    _EUSART2_Initialize->_EUSART2_SetFramingErrorHandler
    _EUSART2_Initialize->_EUSART2_SetOverrunErrorHandler
    _EUSART1_Initialize->_EUSART1_SetErrorHandler
    _EUSART1_Initialize->_EUSART1_SetFramingErrorHandler
    _EUSART1_Initialize->_EUSART1_SetOverrunErrorHandler

Critical Paths under _main in BANK0

    None.

Critical Paths under _main in BANK1

    None.

Critical Paths under _main in BANK2

    None.

Critical Paths under _main in BANK3

    None.

Critical Paths under _main in BANK4

    None.

Critical Paths under _main in BANK5

    None.

Critical Paths under _main in BANK6

    None.

Call Graph Tables:

 ---------------------------------------------------------------------------------
 (Depth) Function   	        Calls       Base Space   Used Autos Params    Refs
 ---------------------------------------------------------------------------------
 (0) _main                                                 1     1      0     610
                                              2 COMMON     1     1      0
                  _SYSTEM_Initialize
                     _v_uart_receive
                        _v_uart_send
 ---------------------------------------------------------------------------------
 (1) _v_uart_send                                          1     1      0      22
                                              1 COMMON     1     1      0
                      _EUSART1_Write
 ---------------------------------------------------------------------------------
 (2) _EUSART1_Write                                        1     1      0      22
                                              0 COMMON     1     1      0
 ---------------------------------------------------------------------------------
 (1) _v_uart_receive                                       1     1      0       0
                                              0 COMMON     1     1      0
                       _EUSART1_Read
 ---------------------------------------------------------------------------------
 (2) _EUSART1_Read                                         0     0      0       0
 ---------------------------------------------------------------------------------
 (1) _SYSTEM_Initialize                                    0     0      0     588
                     _ADC_Initialize
                 _EUSART1_Initialize
                 _EUSART2_Initialize
              _OSCILLATOR_Initialize
             _PIN_MANAGER_Initialize
                     _PMD_Initialize
                    _PWM4_Initialize
                    _TMR2_Initialize
 ---------------------------------------------------------------------------------
 (2) _TMR2_Initialize                                      0     0      0       0
 ---------------------------------------------------------------------------------
 (2) _PWM4_Initialize                                      0     0      0       0
 ---------------------------------------------------------------------------------
 (2) _PMD_Initialize                                       0     0      0       0
 ---------------------------------------------------------------------------------
 (2) _PIN_MANAGER_Initialize                               0     0      0       0
 ---------------------------------------------------------------------------------
 (2) _OSCILLATOR_Initialize                                0     0      0       0
 ---------------------------------------------------------------------------------
 (2) _EUSART2_Initialize                                   0     0      0     294
            _EUSART2_SetErrorHandler
     _EUSART2_SetFramingErrorHandler
     _EUSART2_SetOverrunErrorHandler
 ---------------------------------------------------------------------------------
 (3) _EUSART2_SetOverrunErrorHandler                       2     0      2      98
                                              0 COMMON     2     0      2
 ---------------------------------------------------------------------------------
 (3) _EUSART2_SetFramingErrorHandler                       2     0      2      98
                                              0 COMMON     2     0      2
 ---------------------------------------------------------------------------------
 (3) _EUSART2_SetErrorHandler                              2     0      2      98
                                              0 COMMON     2     0      2
 ---------------------------------------------------------------------------------
 (2) _EUSART1_Initialize                                   0     0      0     294
            _EUSART1_SetErrorHandler
     _EUSART1_SetFramingErrorHandler
     _EUSART1_SetOverrunErrorHandler
 ---------------------------------------------------------------------------------
 (3) _EUSART1_SetOverrunErrorHandler                       2     0      2      98
                                              0 COMMON     2     0      2
 ---------------------------------------------------------------------------------
 (3) _EUSART1_SetFramingErrorHandler                       2     0      2      98
                                              0 COMMON     2     0      2
 ---------------------------------------------------------------------------------
 (3) _EUSART1_SetErrorHandler                              2     0      2      98
                                              0 COMMON     2     0      2
 ---------------------------------------------------------------------------------
 (2) _ADC_Initialize                                       0     0      0       0
 ---------------------------------------------------------------------------------
 Estimated maximum stack depth 3
 ---------------------------------------------------------------------------------

 Call Graph Graphs:

 _main (ROOT)
   _SYSTEM_Initialize
     _ADC_Initialize
     _EUSART1_Initialize
       _EUSART1_SetErrorHandler
       _EUSART1_SetFramingErrorHandler
       _EUSART1_SetOverrunErrorHandler
     _EUSART2_Initialize
       _EUSART2_SetErrorHandler
       _EUSART2_SetFramingErrorHandler
       _EUSART2_SetOverrunErrorHandler
     _OSCILLATOR_Initialize
     _PIN_MANAGER_Initialize
     _PMD_Initialize
     _PWM4_Initialize
     _TMR2_Initialize
   _v_uart_receive
     _EUSART1_Read
   _v_uart_send
     _EUSART1_Write

 Address spaces:
Name               Size   Autos  Total    Cost      Usage
BIGRAM             1F0      0       0       0        0.0%
NULL                 0      0       0       0        0.0%
CODE                 0      0       0       0        0.0%
BITCOMMON            E      0       0       1        0.0%
BITSFR0              0      0       0       1        0.0%
SFR0                 0      0       0       1        0.0%
COMMON               E      3       D       2       92.9%
BITSFR1              0      0       0       2        0.0%
SFR1                 0      0       0       2        0.0%
BITSFR2              0      0       0       3        0.0%
SFR2                 0      0       0       3        0.0%
STACK                0      0       0       3        0.0%
BITSFR3              0      0       0       4        0.0%
SFR3                 0      0       0       4        0.0%
ABS                  0      0      2D       4        0.0%
BITBANK0            50      0       0       5        0.0%
BITSFR4              0      0       0       5        0.0%
SFR4                 0      0       0       5        0.0%
BANK0               50      0      20       6       40.0%
BITSFR5              0      0       0       6        0.0%
SFR5                 0      0       0       6        0.0%
BITBANK1            50      0       0       7        0.0%
BITSFR6              0      0       0       7        0.0%
SFR6                 0      0       0       7        0.0%
BANK1               50      0       0       8        0.0%
BITSFR7              0      0       0       8        0.0%
SFR7                 0      0       0       8        0.0%
BITBANK2            50      0       0       9        0.0%
BITSFR8              0      0       0       9        0.0%
SFR8                 0      0       0       9        0.0%
BANK2               50      0       0      10        0.0%
BITSFR9              0      0       0      10        0.0%
SFR9                 0      0       0      10        0.0%
BITBANK3            50      0       0      11        0.0%
BITSFR10             0      0       0      11        0.0%
SFR10                0      0       0      11        0.0%
BANK3               50      0       0      12        0.0%
BITSFR11             0      0       0      12        0.0%
SFR11                0      0       0      12        0.0%
BITBANK4            50      0       0      13        0.0%
BITSFR12             0      0       0      13        0.0%
SFR12                0      0       0      13        0.0%
BANK4               50      0       0      14        0.0%
BITSFR13             0      0       0      14        0.0%
SFR13                0      0       0      14        0.0%
BITBANK5            50      0       0      15        0.0%
BITSFR14             0      0       0      15        0.0%
SFR14                0      0       0      15        0.0%
BANK5               50      0       0      16        0.0%
BITSFR15             0      0       0      16        0.0%
SFR15                0      0       0      16        0.0%
BITBANK6            10      0       0      17        0.0%
BITSFR16             0      0       0      17        0.0%
SFR16                0      0       0      17        0.0%
BANK6               10      0       0      18        0.0%
BITSFR17             0      0       0      18        0.0%
SFR17                0      0       0      18        0.0%
BITSFR18             0      0       0      19        0.0%
SFR18                0      0       0      19        0.0%
DATA                 0      0      2D      19        0.0%
BITSFR19             0      0       0      20        0.0%
SFR19                0      0       0      20        0.0%
BITSFR20             0      0       0      21        0.0%
SFR20                0      0       0      21        0.0%
BITSFR21             0      0       0      22        0.0%
SFR21                0      0       0      22        0.0%
BITSFR22             0      0       0      23        0.0%
SFR22                0      0       0      23        0.0%
BITSFR23             0      0       0      24        0.0%
SFR23                0      0       0      24        0.0%
BITSFR24             0      0       0      25        0.0%
SFR24                0      0       0      25        0.0%
BITSFR25             0      0       0      26        0.0%
SFR25                0      0       0      26        0.0%
BITSFR26             0      0       0      27        0.0%
SFR26                0      0       0      27        0.0%
BITSFR27             0      0       0      28        0.0%
SFR27                0      0       0      28        0.0%
BITSFR28             0      0       0      29        0.0%
SFR28                0      0       0      29        0.0%
BITSFR29             0      0       0      30        0.0%
SFR29                0      0       0      30        0.0%
BITSFR30             0      0       0      31        0.0%
SFR30                0      0       0      31        0.0%
BITSFR31             0      0       0      32        0.0%
SFR31                0      0       0      32        0.0%
BITSFR32             0      0       0      33        0.0%
SFR32                0      0       0      33        0.0%
BITSFR33             0      0       0      34        0.0%
SFR33                0      0       0      34        0.0%
BITSFR34             0      0       0      35        0.0%
SFR34                0      0       0      35        0.0%
BITSFR35             0      0       0      36        0.0%
SFR35                0      0       0      36        0.0%
BITSFR36             0      0       0      37        0.0%
SFR36                0      0       0      37        0.0%
BITSFR37             0      0       0      38        0.0%
SFR37                0      0       0      38        0.0%
BITSFR38             0      0       0      39        0.0%
SFR38                0      0       0      39        0.0%
BITSFR39             0      0       0      40        0.0%
SFR39                0      0       0      40        0.0%
BITSFR40             0      0       0      41        0.0%
SFR40                0      0       0      41        0.0%
BITSFR41             0      0       0      42        0.0%
SFR41                0      0       0      42        0.0%
BITSFR42             0      0       0      43        0.0%
SFR42                0      0       0      43        0.0%
BITSFR43             0      0       0      44        0.0%
SFR43                0      0       0      44        0.0%
BITSFR44             0      0       0      45        0.0%
SFR44                0      0       0      45        0.0%
BITSFR45             0      0       0      46        0.0%
SFR45                0      0       0      46        0.0%
BITSFR46             0      0       0      47        0.0%
SFR46                0      0       0      47        0.0%
BITSFR47             0      0       0      48        0.0%
SFR47                0      0       0      48        0.0%
BITSFR48             0      0       0      49        0.0%
SFR48                0      0       0      49        0.0%
BITSFR49             0      0       0      50        0.0%
SFR49                0      0       0      50        0.0%
BITSFR50             0      0       0      51        0.0%
SFR50                0      0       0      51        0.0%
BITSFR51             0      0       0      52        0.0%
SFR51                0      0       0      52        0.0%
BITSFR52             0      0       0      53        0.0%
SFR52                0      0       0      53        0.0%
BITSFR53             0      0       0      54        0.0%
SFR53                0      0       0      54        0.0%
BITSFR54             0      0       0      55        0.0%
SFR54                0      0       0      55        0.0%
BITSFR55             0      0       0      56        0.0%
SFR55                0      0       0      56        0.0%
BITSFR56             0      0       0      57        0.0%
SFR56                0      0       0      57        0.0%
BITSFR57             0      0       0      58        0.0%
SFR57                0      0       0      58        0.0%
BITSFR58             0      0       0      59        0.0%
SFR58                0      0       0      59        0.0%
BITSFR59             0      0       0      60        0.0%
SFR59                0      0       0      60        0.0%
BITSFR60             0      0       0      61        0.0%
SFR60                0      0       0      61        0.0%
BITSFR61             0      0       0      62        0.0%
SFR61                0      0       0      62        0.0%
BITSFR62             0      0       0      63        0.0%
SFR62                0      0       0      63        0.0%
BITSFR63             0      0       0      64        0.0%
SFR63                0      0       0      64        0.0%


Microchip Technology PIC Macro Assembler V2.05 build -831301201 
Symbol Table                                                                                   Sun May 19 16:15:36 2019

                                    __CFG_CP$ON 0000                                ??_v_uart_receive 007A  
                                            l66 0762                                     __CFG_LVP$ON 0000  
                                           l321 06C5                                             l328 06BE  
                                           l397 06D9                                             _PR2 028D  
        __end_of_EUSART2_SetFramingErrorHandler 0699         __size_of_EUSART2_SetFramingErrorHandler 0006  
                _EUSART2_SetFramingErrorHandler 0693                         __size_of_PMD_Initialize 0008  
                               _TMR2_Initialize 06DC                                 _PWM4_Initialize 06B5  
                                  __CFG_BORV$LO 0000                                             wreg 0009  
                                 __CFG_BBEN$OFF 0000                                    __CFG_ZCD$OFF 0000  
                                          l1307 06CE                                            l1421 075C  
                                          l1413 0751                                            l1419 0759  
                                          l1349 07D4                                            _LATA 0018  
                                          _LATB 0019                                            _LATC 001A  
                                          _T2PR 028D                                            _PMD0 0796  
                                          _PMD1 0797                                            _PMD2 0798  
                                          _PMD3 0799                                            _PMD4 079A  
                                          _PMD5 079B                                            _PLLR 4480  
                                          _TMR2 028C                                            _WPUA 1F39  
                                          _WPUB 1F44                                            _WPUC 1F4F  
                                 _EUSART1_Write 06BD                                   __CFG_FCMEN$ON 0000  
                                          _main 0744                                   ?_EUSART1_Read 007A  
                                          fsr0h 0005                                            fsr1h 0007  
                                          indf0 0000                                            fsr0l 0004  
                                          indf1 0001                                            fsr1l 0006  
                                          btemp 007E                                   __CFG_BOREN$ON 0000  
                                          start 0002                                   __CFG_CSWEN$ON 0000  
                                 __CFG_MCLRE$ON 0000                  __size_of_OSCILLATOR_Initialize 000C  
                 __end_of_OSCILLATOR_Initialize 06DC                                           ?_main 007A  
                                 __CFG_WDTE$OFF 0000                                           _T2CON 028E  
                                         _T2HLT 028F                                           _T2TMR 028C  
                                         _T2RST 0291                                           _OSCEN 0891  
                                         _TRISA 0012                                           _TRISB 0013  
                                         _TRISC 0014                                   __CFG_WRTB$OFF 0000  
                                 __CFG_WRTC$OFF 0000                                  ?_EUSART1_Write 007A  
                                ??_EUSART1_Read 007A                                           status 0003  
                                         wtemp0 007E              _EUSART1_DefaultFramingErrorHandler 0000  
                               __initialization 07EE                      __end_of_EUSART1_Initialize 0723  
                                  __end_of_main 0765                                  __CFG_SAFEN$OFF 0000  
                       __end_of_PWM4_Initialize 06BD                         __end_of_TMR2_Initialize 06EA  
                                        ??_main 007C                     _EUSART2_DefaultErrorHandler 0000  
                    __end_of_EUSART2_Initialize 0744                                          _ADCON0 009D  
                                        _ADCON1 009E                                          _ADRESH 009C  
                                        _ADRESL 009B                                          _ANSELA 1F38  
                                        _ANSELB 1F43                                          _ANSELC 1F4E  
                                        _RC1REG 0119                                          _RC2REG 0A19  
                                        _RC1STA 011D                                          _RC2PPS 1F22  
                                        _RC2STA 0A1D                                          _RB5PPS 1F1D  
                                        _RB7PPS 1F1F                                          _ODCONA 1F3A  
                                        _ODCONB 1F45                                          _ODCONC 1F50  
                                __CFG_WDTCCS$SC 0000                                          _OSCFRQ 0893  
                                        _TX1REG 011A                                          _TX2REG 0A1A  
                                        _TX1STA 011E                                          _TX2STA 0A1E  
                                __CFG_PWRTE$OFF 0000                                  __CFG_STVREN$ON 0000  
                      ?_EUSART1_SetErrorHandler 007A                     _EUSART2_FramingErrorHandler 003E  
              ??_EUSART1_SetOverrunErrorHandler 007C                 ?_EUSART1_SetOverrunErrorHandler 007A  
                                  ?_v_uart_send 007A                                  _PMD_Initialize 06AD  
                               ??_EUSART1_Write 007A                               _SYSTEM_Initialize 06EA  
                       __end_of__initialization 07FD                              ?_SYSTEM_Initialize 007A  
                                __pcstackCOMMON 007A                             ??_SYSTEM_Initialize 007C  
                              ?_TMR2_Initialize 007A                                ?_PWM4_Initialize 007A  
                        __end_of_PMD_Initialize 06B5                            __end_of_EUSART1_Read 06D0  
                      ?_EUSART2_SetErrorHandler 007A                       __end_of_SYSTEM_Initialize 0702  
                                    __pbssBANK0 0020                ??_EUSART2_SetFramingErrorHandler 007C  
               ?_EUSART2_SetFramingErrorHandler 007A                 __end_of_EUSART1_SetErrorHandler 0681  
                                    __pmaintext 0744                                 __CFG_PPS1WAY$ON 0000  
                               ?_PMD_Initialize 007A                         __size_of_ADC_Initialize 0008  
        __end_of_EUSART1_SetFramingErrorHandler 0687         __size_of_EUSART1_SetFramingErrorHandler 0006  
                _EUSART1_SetFramingErrorHandler 0681                                         _SP1BRGH 011C  
                                       _SP1BRGL 011B                                         _SP2BRGH 0A1C  
                                       _SP2BRGL 0A1B                                         _OSCCON1 088D  
                                       _OSCCON3 088F                                         _OSCSTAT 0890  
                                       _OSCTUNE 0892                                         _PWM4DCH 0319  
                                       _PWM4DCL 0318                                         _PWM4CON 031A  
                                       _SLRCONA 1F3B                                         _SLRCONB 1F46  
                                       _SLRCONC 1F51                 __end_of_EUSART2_SetErrorHandler 0693  
                                       __ptext1 078D                                         __ptext2 06BD  
                                       __ptext3 07B9                                         __ptext4 06C5  
                                       __ptext5 06EA                                         __ptext6 06DC  
                                       __ptext7 06B5                                         __ptext8 06AD  
                                       __ptext9 0765                                 __CFG_WRTAPP$OFF 0000  
            _EUSART2_DefaultOverrunErrorHandler 0000                           _OSCILLATOR_Initialize 06D0  
                                     _T2CONbits 028E                            __size_of_v_uart_send 002C  
                            _EUSART1_Initialize 0702                        ??_PIN_MANAGER_Initialize 007A  
                                     _T2HLTbits 028F                                 __CFG_WRTSAF$OFF 0000  
                       __size_of_v_uart_receive 0035                      __size_of_SYSTEM_Initialize 0018  
                                       clrloop0 06A0                            end_of_initialization 07FD  
                                     _T2RSTbits 0291                             ?_EUSART1_Initialize 007A  
                   _EUSART1_OverrunErrorHandler 0036                              _EUSART2_Initialize 0723  
                         __size_of_EUSART1_Read 000B                            ??_EUSART1_Initialize 007C  
                         __CFG_WDTCPS$WDTCPS_31 0000                             ?_EUSART2_Initialize 007A  
              __size_of_EUSART1_SetErrorHandler 0006                             EUSART1_Write@txData 007A  
                              __CFG_FEXTOSC$OFF 0000                            ??_EUSART2_Initialize 007C  
                                  _EUSART1_Read 06C5                                  _ADC_Initialize 06A5  
                        ?_OSCILLATOR_Initialize 007A                             start_initialization 07EE  
               __size_of_PIN_MANAGER_Initialize 0028                           __end_of_EUSART1_Write 06C5  
              __size_of_EUSART2_SetErrorHandler 0006          __end_of_EUSART2_SetOverrunErrorHandler 069F  
       __size_of_EUSART2_SetOverrunErrorHandler 0006                  _EUSART2_SetOverrunErrorHandler 0699  
                              __CFG_LPBOREN$OFF 0000                                ??_PMD_Initialize 007A  
                        __end_of_ADC_Initialize 06AD                                       _u8_RxData 0077  
                                   __pbssCOMMON 0070                                  _v_uart_receive 07B9  
                                     ___latbits 0001                        __size_of_PWM4_Initialize 0008  
                      __size_of_TMR2_Initialize 000E                ??_EUSART1_SetFramingErrorHandler 007C  
               ?_EUSART1_SetFramingErrorHandler 007A                          _PIN_MANAGER_Initialize 0765  
                               ?_ADC_Initialize 007A                          __end_of_v_uart_receive 07EE  
                                      _BAUD1CON 011F                                        _BAUD2CON 0A1F  
            _EUSART1_DefaultOverrunErrorHandler 0000                            _EUSART1_ErrorHandler 0034  
                       _EUSART1_SetErrorHandler 067B                               _u8_Compressor_PIN 0076  
                          __CFG_RSTOSC$HFINTPLL 0000                                        _T2CLKCON 0290  
       EUSART1_SetErrorHandler@interruptHandler 007A         EUSART2_SetErrorHandler@interruptHandler 007A  
                                      _LATCbits 001A                                       clear_ram0 069F  
                                      _PIR3bits 070F                                        _PIR4bits 0710  
                                      _RX1DTPPS 1ECB                                        _RX2DTPPS 1ECD  
                             __CFG_BBSIZE$BB512 0000                                  _u8_Rx_DataBuff 002A  
                                 ??_v_uart_send 007B                                      _ADCON0bits 009D  
                               ?_v_uart_receive 007A                                  _u8_Tx_DataBuff 0020  
                       _EUSART2_SetErrorHandler 068D                               ??_TMR2_Initialize 007A  
                             ??_PWM4_Initialize 007A                     _EUSART2_OverrunErrorHandler 003C  
                              _i8_R_Temperature 0072                                        _u8_Index 0079  
                       ??_OSCILLATOR_Initialize 007A                     __size_of_EUSART1_Initialize 0021  
                                 _u8_ErrorCodes 0075                       ??_EUSART1_SetErrorHandler 007C  
                   _EUSART1_DefaultErrorHandler 0000                            _EUSART2_ErrorHandler 003A  
                           __end_of_v_uart_send 07B9                                        __ptext10 06D0  
                                      __ptext11 0723                                        __ptext12 0699  
                                      __ptext13 0693                                        __ptext14 068D  
                                      __ptext15 0702                                        __ptext16 0687  
                                      __ptext17 0681                                        __ptext18 067B  
                                      __ptext19 06A5                     __size_of_EUSART2_Initialize 0021  
                                 __size_of_main 0021              _EUSART2_DefaultFramingErrorHandler 0000  
                          __CFG_WDTCWS$WDTCWS_7 0000                                      _RC1STAbits 011D  
                                    _RC2STAbits 0A1D  EUSART1_SetOverrunErrorHandler@interruptHandler 007A  
EUSART2_SetOverrunErrorHandler@interruptHandler 007A                     _EUSART1_FramingErrorHandler 0038  
              ??_EUSART2_SetOverrunErrorHandler 007C                 ?_EUSART2_SetOverrunErrorHandler 007A  
                                  _u8_Door_Open 0074                       ??_EUSART2_SetErrorHandler 007C  
                       ?_PIN_MANAGER_Initialize 007A                               __CFG_CLKOUTEN$OFF 0000  
        __end_of_EUSART1_SetOverrunErrorHandler 068D         __size_of_EUSART1_SetOverrunErrorHandler 0006  
                _EUSART1_SetOverrunErrorHandler 0687                                ??_ADC_Initialize 007A  
EUSART1_SetFramingErrorHandler@interruptHandler 007A  EUSART2_SetFramingErrorHandler@interruptHandler 007A  
                        __size_of_EUSART1_Write 0008                              _eusart1RxLastError 0070  
                                   _v_uart_send 078D                                    _u8_Tx_Status 0078  
                                    _TX1STAbits 011E                                      _TX2STAbits 0A1E  
                __end_of_PIN_MANAGER_Initialize 078D                                _i8_F_Temperature 0073  
                            _eusart2RxLastError 0071  
